ccopy_reg
_reconstructor
p1
(canw.war.shipbattle
ShipBattle
p2
c__builtin__
object
p3
NtRp4
(dp5
S'count'
p6
I0
sS'shipsDict'
p7
(dp8
S'429'
p9
(dp10
S'repair'
p11
I0
sS'availSystems'
p12
(lp13
S'26'
p14
asS'takenOverByEmpire'
p15
S''
sS'radar'
p16
I0
sS'rotation'
p17
F18.09
sS'currentISP'
p18
F4000
sS'toSystem'
p19
S'36'
p20
sS'quads'
p21
(dp22
S'aft'
p23
(dp24
g11
I0
sS'target'
p25
I0
sS'maxBattery'
p26
I2800
sS'maxAP'
p27
I0
sS'typeAP'
p28
S''
sS'genSP'
p29
I0
sS'weapons'
p30
(dp31
S'1'
(dp32
S'droneID'
p33
S'4'
sS'currentAmmo'
p34
I0
sS'currentLock'
p35
F0
sS'facing'
p36
F180
sS'maxLock'
p37
F7
sS'currentPower'
p38
F0
sS'maxHP'
p39
I1200
sS'operational'
p40
I1
sS'type'
p41
S'48'
p42
sS'id'
p43
S'1'
sS'currentHP'
p44
I1200
sssg16
I0
sS'maxSP'
p45
I0
sS'mass'
p46
F15600
sS'currentAP'
p47
I0
sS'components'
p48
(dp49
S'11'
p50
(dp51
g44
I100
sS'weaponID'
p52
S'1'
sg41
S'64'
p53
sg43
g50
sS'currentAmount'
p54
F0
ssS'10'
p55
(dp56
g44
I100
sg52
S'1'
sg41
g53
sg43
g55
sg54
F0
ssS'13'
p57
(dp58
g44
I100
sg52
S'1'
sg41
g53
sg43
g57
sg54
F0
ssS'12'
p59
(dp60
g44
I100
sg52
S'1'
sg41
g53
sg43
g59
sg54
F0
ssS'15'
p61
(dp62
g44
I100
sg52
S'1'
sg41
g53
sg43
g61
sg54
F0
ssS'14'
p63
(dp64
g44
I100
sg52
S'1'
sg41
g53
sg43
g63
sg54
F0
ssS'16'
p65
(dp66
g44
I100
sg52
S'1'
sg41
g53
sg43
g65
sg54
F0
ssS'1'
(dp67
g44
I100
sg52
S''
sg41
S'11'
p68
sg43
S'1'
sg54
F0
ssS'3'
(dp69
g44
I100
sg52
S''
sg41
S'11'
p70
sg43
S'3'
sg54
F0
ssS'2'
(dp71
g44
I100
sg52
S''
sg41
S'11'
p72
sg43
S'2'
sg54
F0
ssS'5'
(dp73
g44
I100
sg52
S'1'
sg41
g53
sg43
S'5'
sg54
F0
ssS'4'
(dp74
g44
I100
sg52
S''
sg41
S'11'
p75
sg43
S'4'
sg54
F0
ssS'7'
(dp76
g44
I100
sg52
S'1'
sg41
g53
sg43
S'7'
sg54
F0
ssS'6'
(dp77
g44
I100
sg52
S'1'
sg41
g53
sg43
S'6'
sg54
F0
ssS'9'
(dp78
g44
I100
sg52
S'1'
sg41
g53
sg43
S'9'
sg54
F0
ssS'8'
(dp79
g44
I100
sg52
S'1'
sg41
g53
sg43
S'8'
sg54
F0
sssS'maxAssault'
p80
I0
sS'thrust'
p81
F0
sS'position'
p82
g23
sg17
F0
sS'currentSP'
p83
I0
sS'jamming'
p84
I0
sS'maxPower'
p85
I0
sS'currentComps'
p86
I16
ssS'star'
p87
(dp88
g11
I0
sg25
I0
sg26
I2800
sg27
I0
sg28
S''
sg29
I0
sg30
(dp89
S'1'
(dp90
g33
S'4'
sg34
I0
sg35
F0
sg36
F180
sg37
F7
sg38
F0
sg39
I1200
sg40
I1
sg41
S'48'
p91
sg43
S'1'
sg44
I1200
sssg16
I0
sg45
I0
sg46
F15600
sg47
I0
sg48
(dp92
S'11'
p93
(dp94
g44
I100
sg52
S'1'
sg41
g53
sg43
g93
sg54
F0
ssS'10'
p95
(dp96
g44
I100
sg52
S'1'
sg41
g53
sg43
g95
sg54
F0
ssS'13'
p97
(dp98
g44
I100
sg52
S'1'
sg41
g53
sg43
g97
sg54
F0
ssS'12'
p99
(dp100
g44
I100
sg52
S'1'
sg41
g53
sg43
g99
sg54
F0
ssS'15'
p101
(dp102
g44
I100
sg52
S'1'
sg41
g53
sg43
g101
sg54
F0
ssS'14'
p103
(dp104
g44
I100
sg52
S'1'
sg41
g53
sg43
g103
sg54
F0
ssS'16'
p105
(dp106
g44
I100
sg52
S'1'
sg41
g53
sg43
g105
sg54
F0
ssS'1'
(dp107
g44
I100
sg52
S''
sg41
S'11'
p108
sg43
S'1'
sg54
F0
ssS'3'
(dp109
g44
I100
sg52
S''
sg41
S'11'
p110
sg43
S'3'
sg54
F0
ssS'2'
(dp111
g44
I100
sg52
S''
sg41
S'11'
p112
sg43
S'2'
sg54
F0
ssS'5'
(dp113
g44
I100
sg52
S'1'
sg41
g53
sg43
S'5'
sg54
F0
ssS'4'
(dp114
g44
I100
sg52
S''
sg41
S'11'
p115
sg43
S'4'
sg54
F0
ssS'7'
(dp116
g44
I100
sg52
S'1'
sg41
g53
sg43
S'7'
sg54
F0
ssS'6'
(dp117
g44
I100
sg52
S'1'
sg41
g53
sg43
S'6'
sg54
F0
ssS'9'
(dp118
g44
I100
sg52
S'1'
sg41
g53
sg43
S'9'
sg54
F0
ssS'8'
(dp119
g44
I100
sg52
S'1'
sg41
g53
sg43
S'8'
sg54
F0
sssg80
I0
sg81
F0
sg82
g87
sg17
F0
sg83
I0
sg84
I0
sg85
I0
sg86
I16
ssS'port'
p120
(dp121
g11
I0
sg25
I0
sg26
I2800
sg27
I0
sg28
S''
sg29
I0
sg30
(dp122
S'1'
(dp123
g33
S'4'
sg34
I0
sg35
F0
sg36
F180
sg37
F7
sg38
F0
sg39
I1200
sg40
I1
sg41
S'48'
p124
sg43
S'1'
sg44
I1200
sssg16
I0
sg45
I0
sg46
F15600
sg47
I0
sg48
(dp125
S'11'
p126
(dp127
g44
I100
sg52
S'1'
sg41
g53
sg43
g126
sg54
F0
ssS'10'
p128
(dp129
g44
I100
sg52
S'1'
sg41
g53
sg43
g128
sg54
F0
ssS'13'
p130
(dp131
g44
I100
sg52
S'1'
sg41
g53
sg43
g130
sg54
F0
ssS'12'
p132
(dp133
g44
I100
sg52
S'1'
sg41
g53
sg43
g132
sg54
F0
ssS'15'
p134
(dp135
g44
I100
sg52
S'1'
sg41
g53
sg43
g134
sg54
F0
ssS'14'
p136
(dp137
g44
I100
sg52
S'1'
sg41
g53
sg43
g136
sg54
F0
ssS'16'
p138
(dp139
g44
I100
sg52
S'1'
sg41
g53
sg43
g138
sg54
F0
ssS'1'
(dp140
g44
I100
sg52
S''
sg41
S'11'
p141
sg43
S'1'
sg54
F0
ssS'3'
(dp142
g44
I100
sg52
S''
sg41
S'11'
p143
sg43
S'3'
sg54
F0
ssS'2'
(dp144
g44
I100
sg52
S''
sg41
S'11'
p145
sg43
S'2'
sg54
F0
ssS'5'
(dp146
g44
I100
sg52
S'1'
sg41
g53
sg43
S'5'
sg54
F0
ssS'4'
(dp147
g44
I100
sg52
S''
sg41
S'11'
p148
sg43
S'4'
sg54
F0
ssS'7'
(dp149
g44
I100
sg52
S'1'
sg41
g53
sg43
S'7'
sg54
F0
ssS'6'
(dp150
g44
I100
sg52
S'1'
sg41
g53
sg43
S'6'
sg54
F0
ssS'9'
(dp151
g44
I100
sg52
S'1'
sg41
g53
sg43
S'9'
sg54
F0
ssS'8'
(dp152
g44
I100
sg52
S'1'
sg41
g53
sg43
S'8'
sg54
F0
sssg80
I0
sg81
F0
sg82
g120
sg17
F0
sg83
I0
sg84
I0
sg85
I0
sg86
I16
ssS'fore'
p153
(dp154
g11
I0
sg25
I0
sg26
I2100
sg27
I0
sg28
S''
sg29
I0
sg30
(dp155
S'1'
(dp156
g33
S''
sg34
I0
sg35
F0
sg36
F0
sg37
F0.29999999999999999
sg38
F0
sg39
I400
sg40
I1
sg41
S'8'
sg43
S'1'
sg44
I400
sssg16
I0
sg45
I0
sg46
F14800
sg47
I0
sg48
(dp157
S'11'
p158
(dp159
g44
I100
sg52
S''
sg41
S'8'
sg43
g158
sg54
F0
ssS'10'
p160
(dp161
g44
I100
sg52
S''
sg41
S'8'
sg43
g160
sg54
F0
ssS'13'
p162
(dp163
g44
I100
sg52
S'1'
sg41
g53
sg43
g162
sg54
F0
ssS'12'
p164
(dp165
g44
I100
sg52
S''
sg41
S'8'
sg43
g164
sg54
F0
ssS'15'
p166
(dp167
g44
I100
sg52
S'1'
sg41
g53
sg43
g166
sg54
F0
ssS'14'
p168
(dp169
g44
I100
sg52
S'1'
sg41
g53
sg43
g168
sg54
F0
ssS'16'
p170
(dp171
g44
I100
sg52
S'1'
sg41
g53
sg43
g170
sg54
F0
ssS'1'
(dp172
g44
I100
sg52
S''
sg41
S'11'
p173
sg43
S'1'
sg54
F0
ssS'3'
(dp174
g44
I100
sg52
S''
sg41
S'11'
p175
sg43
S'3'
sg54
F0
ssS'2'
(dp176
g44
I100
sg52
S''
sg41
S'11'
p177
sg43
S'2'
sg54
F0
ssS'5'
(dp178
g44
I100
sg52
S''
sg41
S'2'
sg43
S'5'
sg54
F0
ssS'4'
(dp179
g44
I100
sg52
S''
sg41
S'2'
sg43
S'4'
sg54
F0
ssS'7'
(dp180
g44
I100
sg52
S''
sg41
S'5'
sg43
S'7'
sg54
F0
ssS'6'
(dp181
g44
I100
sg52
S''
sg41
S'2'
sg43
S'6'
sg54
F0
ssS'9'
(dp182
g44
I100
sg52
S''
sg41
S'8'
sg43
S'9'
sg54
F0
ssS'8'
(dp183
g44
I100
sg52
S''
sg41
S'8'
sg43
S'8'
sg54
F0
sssg80
I0
sg81
F48
sg82
g153
sg17
F45
sg83
I0
sg84
I0
sg85
I500
sg86
I16
sssS'strength'
p184
F100
sS'oldAvailSystems'
p185
(lp186
S'25'
p187
aS'27'
p188
aS'15'
p189
aS'17'
p190
aS'16'
p191
aS'36'
p192
aS'35'
p193
aS'34'
p194
asg43
g9
sS'targets'
p195
(lp196
S'344'
p197
aS'345'
p198
aS'340'
p199
aS'341'
p200
aS'342'
p201
aS'343'
p202
asS'isAssault'
p203
I0
sg84
I0
sS'currentBattery'
p204
F0
sS'accel'
p205
F0.59999999999999998
sg38
F500
sg81
F48
sS'captainID'
p206
S'429'
p207
sS'empireID'
p208
S'5'
sS'setX'
p209
I-28
sS'setY'
p210
I-13
sS'fromSystem'
p211
g14
sS'repairCost'
p212
(lp213
I0
aI0
aI0
aI0
asS'isTransport'
p214
I0
sS'name'
p215
S'HCA16-HMS WONG-429'
p216
sg26
I10500
sg36
F0
sS'designID'
p217
S'16'
p218
sS'range'
p219
F224
sg46
F79600
sS'systemGrid'
p220
I1
sS'posX'
p221
F-94.666666666666657
sS'posY'
p222
F-79.666666666666657
sg80
I0
ssS'465'
p223
(dp224
g11
I0
sg12
(lp225
sg15
S''
sg16
I0
sg17
F45.18
sg18
F2000
sg19
g192
sg21
(dp226
S'aft'
p227
(dp228
g11
I0
sg25
I0
sg26
I0
sg27
I300
sg28
S'impact'
p229
sg29
I1
sg30
(dp230
sg16
I0
sg45
I100
sg46
F3000
sg47
I300
sg48
(dp231
S'1'
(dp232
g44
I50
sg52
S''
sg41
S'1'
sg43
S'1'
sg54
F0
ssS'3'
(dp233
g44
I50
sg52
S''
sg41
S'31'
p234
sg43
S'3'
sg54
F0
ssS'2'
(dp235
g44
I50
sg52
S''
sg41
S'25'
p236
sg43
S'2'
sg54
F0
sssg80
I0
sg81
F10
sg82
g227
sg17
F0
sg83
I100
sg84
I0
sg85
I0
sg86
I3
ssS'star'
p237
(dp238
g11
I0
sg25
I0
sg26
I0
sg27
I300
sg28
g229
sg29
I1
sg30
(dp239
sg16
I0
sg45
I100
sg46
F4000
sg47
I300
sg48
(dp240
S'1'
(dp241
g44
I50
sg52
S''
sg41
S'1'
sg43
S'1'
sg54
F0
ssS'3'
(dp242
g44
I50
sg52
S''
sg41
g234
sg43
S'3'
sg54
F0
ssS'2'
(dp243
g44
I50
sg52
S''
sg41
g236
sg43
S'2'
sg54
F0
ssS'4'
(dp244
g44
I50
sg52
S''
sg41
S'4'
sg43
S'4'
sg54
F0
sssg80
I0
sg81
F10
sg82
g237
sg17
F24
sg83
I100
sg84
I0
sg85
I0
sg86
I4
ssS'port'
p245
(dp246
g11
I0
sg25
I0
sg26
I0
sg27
I300
sg28
g229
sg29
I1
sg30
(dp247
sg16
I0
sg45
I100
sg46
F4000
sg47
I300
sg48
(dp248
S'1'
(dp249
g44
I50
sg52
S''
sg41
S'1'
sg43
S'1'
sg54
F0
ssS'3'
(dp250
g44
I50
sg52
S''
sg41
g234
sg43
S'3'
sg54
F0
ssS'2'
(dp251
g44
I50
sg52
S''
sg41
g236
sg43
S'2'
sg54
F0
ssS'4'
(dp252
g44
I50
sg52
S''
sg41
S'4'
sg43
S'4'
sg54
F0
sssg80
I0
sg81
F10
sg82
g245
sg17
F24
sg83
I100
sg84
I0
sg85
I0
sg86
I4
ssS'fore'
p253
(dp254
g11
I0
sg25
I0
sg26
I0
sg27
I300
sg28
g229
sg29
I1
sg30
(dp255
S'1'
(dp256
g33
S''
sg34
I0
sg35
F0
sg36
F0
sg37
F0.29999999999999999
sg38
F0
sg39
I200
sg40
I1
sg41
S'4'
sg43
S'1'
sg44
I200
sssg16
I0
sg45
I100
sg46
F11000
sg47
I300
sg48
(dp257
S'11'
p258
(dp259
g44
I50
sg52
S'1'
sg41
S'64'
p260
sg43
g258
sg54
F0
ssS'10'
p261
(dp262
g44
I50
sg52
S'1'
sg41
g260
sg43
g261
sg54
F0
ssS'1'
(dp263
g44
I50
sg52
S''
sg41
S'1'
sg43
S'1'
sg54
F0
ssS'3'
(dp264
g44
I50
sg52
S''
sg41
g234
sg43
S'3'
sg54
F0
ssS'2'
(dp265
g44
I50
sg52
S''
sg41
g236
sg43
S'2'
sg54
F0
ssS'5'
(dp266
g44
I50
sg52
S''
sg41
S'7'
sg43
S'5'
sg54
F0
ssS'4'
(dp267
g44
I50
sg52
S''
sg41
S'7'
sg43
S'4'
sg54
F0
ssS'7'
(dp268
g44
I50
sg52
S''
sg41
S'7'
sg43
S'7'
sg54
F0
ssS'6'
(dp269
g44
I50
sg52
S''
sg41
S'7'
sg43
S'6'
sg54
F0
ssS'9'
(dp270
g44
I50
sg52
S'1'
sg41
g260
sg43
S'9'
sg54
F0
ssS'8'
(dp271
g44
I50
sg52
S'1'
sg41
g260
sg43
S'8'
sg54
F0
sssg80
I0
sg81
F10
sg82
g253
sg17
F0
sg83
I100
sg84
I0
sg85
I200
sg86
I11
sssg184
F100
sg185
(lp272
sg43
g223
sg195
(lp273
g197
ag198
ag199
ag200
ag201
ag202
asg203
I0
sg84
I0
sg204
F0
sg205
F1.1799999999999999
sg38
F200
sg81
F40
sg206
S'465'
p274
sg208
S'5'
sg209
I-10
sg210
I-28
sg211
S'26'
p275
sg212
(lp276
I0
aI0
aI0
aI0
asg214
I1
sg215
S'LAS12-Marine Transport-465'
p277
sg26
I0
sg36
F0
sg217
S'12'
p278
sg219
I99999
sg46
F34000
sg220
I1
sg221
F-76.666666666666657
sg222
F-94.666666666666657
sg80
I0
ssS'464'
p279
(dp280
g11
I0
sg12
(lp281
sg15
S''
sg16
I0
sg17
F45.18
sg18
F2000
sg19
g192
sg21
(dp282
g227
(dp283
g11
I0
sg25
I0
sg26
I0
sg27
I300
sg28
g229
sg29
I1
sg30
(dp284
sg16
I0
sg45
I100
sg46
F3000
sg47
I300
sg48
(dp285
S'1'
(dp286
g44
I50
sg52
S''
sg41
S'1'
sg43
S'1'
sg54
F0
ssS'3'
(dp287
g44
I50
sg52
S''
sg41
g234
sg43
S'3'
sg54
F0
ssS'2'
(dp288
g44
I50
sg52
S''
sg41
g236
sg43
S'2'
sg54
F0
sssg80
I0
sg81
F10
sg82
g227
sg17
F0
sg83
I100
sg84
I0
sg85
I0
sg86
I3
ssg237
(dp289
g11
I0
sg25
I0
sg26
I0
sg27
I300
sg28
g229
sg29
I1
sg30
(dp290
sg16
I0
sg45
I100
sg46
F4000
sg47
I300
sg48
(dp291
S'1'
(dp292
g44
I50
sg52
S''
sg41
S'1'
sg43
S'1'
sg54
F0
ssS'3'
(dp293
g44
I50
sg52
S''
sg41
g234
sg43
S'3'
sg54
F0
ssS'2'
(dp294
g44
I50
sg52
S''
sg41
g236
sg43
S'2'
sg54
F0
ssS'4'
(dp295
g44
I50
sg52
S''
sg41
S'4'
sg43
S'4'
sg54
F0
sssg80
I0
sg81
F10
sg82
g237
sg17
F24
sg83
I100
sg84
I0
sg85
I0
sg86
I4
ssg245
(dp296
g11
I0
sg25
I0
sg26
I0
sg27
I300
sg28
g229
sg29
I1
sg30
(dp297
sg16
I0
sg45
I100
sg46
F4000
sg47
I300
sg48
(dp298
S'1'
(dp299
g44
I50
sg52
S''
sg41
S'1'
sg43
S'1'
sg54
F0
ssS'3'
(dp300
g44
I50
sg52
S''
sg41
g234
sg43
S'3'
sg54
F0
ssS'2'
(dp301
g44
I50
sg52
S''
sg41
g236
sg43
S'2'
sg54
F0
ssS'4'
(dp302
g44
I50
sg52
S''
sg41
S'4'
sg43
S'4'
sg54
F0
sssg80
I0
sg81
F10
sg82
g245
sg17
F24
sg83
I100
sg84
I0
sg85
I0
sg86
I4
ssg253
(dp303
g11
I0
sg25
I0
sg26
I0
sg27
I300
sg28
g229
sg29
I1
sg30
(dp304
S'1'
(dp305
g33
S''
sg34
I0
sg35
F0
sg36
F0
sg37
F0.29999999999999999
sg38
F0
sg39
I200
sg40
I1
sg41
S'4'
sg43
S'1'
sg44
I200
sssg16
I0
sg45
I100
sg46
F11000
sg47
I300
sg48
(dp306
g258
(dp307
g44
I50
sg52
S'1'
sg41
g260
sg43
g258
sg54
F0
ssg261
(dp308
g44
I50
sg52
S'1'
sg41
g260
sg43
g261
sg54
F0
ssS'1'
(dp309
g44
I50
sg52
S''
sg41
S'1'
sg43
S'1'
sg54
F0
ssS'3'
(dp310
g44
I50
sg52
S''
sg41
g234
sg43
S'3'
sg54
F0
ssS'2'
(dp311
g44
I50
sg52
S''
sg41
g236
sg43
S'2'
sg54
F0
ssS'5'
(dp312
g44
I50
sg52
S''
sg41
S'7'
sg43
S'5'
sg54
F0
ssS'4'
(dp313
g44
I50
sg52
S''
sg41
S'7'
sg43
S'4'
sg54
F0
ssS'7'
(dp314
g44
I50
sg52
S''
sg41
S'7'
sg43
S'7'
sg54
F0
ssS'6'
(dp315
g44
I50
sg52
S''
sg41
S'7'
sg43
S'6'
sg54
F0
ssS'9'
(dp316
g44
I50
sg52
S'1'
sg41
g260
sg43
S'9'
sg54
F0
ssS'8'
(dp317
g44
I50
sg52
S'1'
sg41
g260
sg43
S'8'
sg54
F0
sssg80
I0
sg81
F10
sg82
g253
sg17
F0
sg83
I100
sg84
I0
sg85
I200
sg86
I11
sssg184
F100
sg185
(lp318
sg43
g279
sg195
(lp319
g197
ag198
ag199
ag200
ag201
ag202
asg203
I0
sg84
I0
sg204
F0
sg205
F1.1799999999999999
sg38
F200
sg81
F40
sg206
S'464'
p320
sg208
S'5'
sg209
I-26
sg210
I1
sg211
g275
sg212
(lp321
I0
aI0
aI0
aI0
asg214
I1
sg215
S'LAS12-Marine Transport-464'
p322
sg26
I0
sg36
F0
sg217
g278
sg219
I99999
sg46
F34000
sg220
I1
sg221
F-92.666666666666657
sg222
F-65.666666666666657
sg80
I0
ssS'463'
p323
(dp324
g11
I0
sg12
(lp325
sg15
S''
sg16
I0
sg17
F45.18
sg18
F2000
sg19
g192
sg21
(dp326
g227
(dp327
g11
I0
sg25
I0
sg26
I0
sg27
I300
sg28
g229
sg29
I1
sg30
(dp328
sg16
I0
sg45
I100
sg46
F3000
sg47
I300
sg48
(dp329
S'1'
(dp330
g44
I50
sg52
S''
sg41
S'1'
sg43
S'1'
sg54
F0
ssS'3'
(dp331
g44
I50
sg52
S''
sg41
g234
sg43
S'3'
sg54
F0
ssS'2'
(dp332
g44
I50
sg52
S''
sg41
g236
sg43
S'2'
sg54
F0
sssg80
I0
sg81
F10
sg82
g227
sg17
F0
sg83
I100
sg84
I0
sg85
I0
sg86
I3
ssg237
(dp333
g11
I0
sg25
I0
sg26
I0
sg27
I300
sg28
g229
sg29
I1
sg30
(dp334
sg16
I0
sg45
I100
sg46
F4000
sg47
I300
sg48
(dp335
S'1'
(dp336
g44
I50
sg52
S''
sg41
S'1'
sg43
S'1'
sg54
F0
ssS'3'
(dp337
g44
I50
sg52
S''
sg41
g234
sg43
S'3'
sg54
F0
ssS'2'
(dp338
g44
I50
sg52
S''
sg41
g236
sg43
S'2'
sg54
F0
ssS'4'
(dp339
g44
I50
sg52
S''
sg41
S'4'
sg43
S'4'
sg54
F0
sssg80
I0
sg81
F10
sg82
g237
sg17
F24
sg83
I100
sg84
I0
sg85
I0
sg86
I4
ssg245
(dp340
g11
I0
sg25
I0
sg26
I0
sg27
I300
sg28
g229
sg29
I1
sg30
(dp341
sg16
I0
sg45
I100
sg46
F4000
sg47
I300
sg48
(dp342
S'1'
(dp343
g44
I50
sg52
S''
sg41
S'1'
sg43
S'1'
sg54
F0
ssS'3'
(dp344
g44
I50
sg52
S''
sg41
g234
sg43
S'3'
sg54
F0
ssS'2'
(dp345
g44
I50
sg52
S''
sg41
g236
sg43
S'2'
sg54
F0
ssS'4'
(dp346
g44
I50
sg52
S''
sg41
S'4'
sg43
S'4'
sg54
F0
sssg80
I0
sg81
F10
sg82
g245
sg17
F24
sg83
I100
sg84
I0
sg85
I0
sg86
I4
ssg253
(dp347
g11
I0
sg25
I0
sg26
I0
sg27
I300
sg28
g229
sg29
I1
sg30
(dp348
S'1'
(dp349
g33
S''
sg34
I0
sg35
F0
sg36
F0
sg37
F0.29999999999999999
sg38
F0
sg39
I200
sg40
I1
sg41
S'4'
sg43
S'1'
sg44
I200
sssg16
I0
sg45
I100
sg46
F11000
sg47
I300
sg48
(dp350
g258
(dp351
g44
I50
sg52
S'1'
sg41
g260
sg43
g258
sg54
F0
ssg261
(dp352
g44
I50
sg52
S'1'
sg41
g260
sg43
g261
sg54
F0
ssS'1'
(dp353
g44
I50
sg52
S''
sg41
S'1'
sg43
S'1'
sg54
F0
ssS'3'
(dp354
g44
I50
sg52
S''
sg41
g234
sg43
S'3'
sg54
F0
ssS'2'
(dp355
g44
I50
sg52
S''
sg41
g236
sg43
S'2'
sg54
F0
ssS'5'
(dp356
g44
I50
sg52
S''
sg41
S'7'
sg43
S'5'
sg54
F0
ssS'4'
(dp357
g44
I50
sg52
S''
sg41
S'7'
sg43
S'4'
sg54
F0
ssS'7'
(dp358
g44
I50
sg52
S''
sg41
S'7'
sg43
S'7'
sg54
F0
ssS'6'
(dp359
g44
I50
sg52
S''
sg41
S'7'
sg43
S'6'
sg54
F0
ssS'9'
(dp360
g44
I50
sg52
S'1'
sg41
g260
sg43
S'9'
sg54
F0
ssS'8'
(dp361
g44
I50
sg52
S'1'
sg41
g260
sg43
S'8'
sg54
F0
sssg80
I0
sg81
F10
sg82
g253
sg17
F0
sg83
I100
sg84
I0
sg85
I200
sg86
I11
sssg184
F100
sg185
(lp362
sg43
g323
sg195
(lp363
g197
ag198
ag199
ag200
ag201
ag202
asg203
I0
sg84
I0
sg204
F0
sg205
F1.1799999999999999
sg38
F200
sg81
F40
sg206
S'463'
p364
sg208
S'5'
sg209
I-21
sg210
I-8
sg211
g275
sg212
(lp365
I0
aI0
aI0
aI0
asg214
I1
sg215
S'LAS12-Marine Transport-463'
p366
sg26
I0
sg36
F0
sg217
g278
sg219
I99999
sg46
F34000
sg220
I1
sg221
F-87.666666666666657
sg222
F-74.666666666666657
sg80
I0
ssg197
(dp367
S'repair'
p368
I0
sg12
(lp369
S'26'
p370
ag188
aS'44'
p371
aS'28'
p372
aS'37'
p373
ag193
asS'takenOverByEmpire'
p374
S''
sS'radar'
p375
I0
sS'rotation'
p376
F46.079999999999998
sS'currentISP'
p377
F1000
sS'toSystem'
p378
g192
sg21
(dp379
g227
(dp380
g368
I0
sS'target'
p381
I0
sS'maxBattery'
p382
I0
sS'maxAP'
p383
I0
sS'typeAP'
p384
S''
sS'genSP'
p385
I0
sg30
(dp386
sg375
I0
sS'maxSP'
p387
I0
sS'mass'
p388
F10000
sS'currentAP'
p389
I0
sg48
(dp390
S'10'
p391
(dp392
S'currentHP'
p393
I50
sS'weaponID'
p394
S''
sS'type'
p395
S'1'
sS'id'
p396
g391
sS'currentAmount'
p397
F0
ssS'1'
(dp398
g393
I50
sg394
S''
sg395
S'7'
sg396
S'1'
sg397
F0
ssS'3'
(dp399
g393
I50
sg394
S''
sg395
S'7'
sg396
S'3'
sg397
F0
ssS'2'
(dp400
g393
I50
sg394
S''
sg395
S'7'
sg396
S'2'
sg397
F0
ssS'5'
(dp401
g393
I50
sg394
S''
sg395
S'35'
p402
sg396
S'5'
sg397
I36
ssS'4'
(dp403
g393
I50
sg394
S''
sg395
S'4'
sg396
S'4'
sg397
F0
ssS'7'
(dp404
g393
I50
sg394
S''
sg395
S'1'
sg396
S'7'
sg397
F0
ssS'6'
(dp405
g393
I50
sg394
S''
sg395
S'1'
sg396
S'6'
sg397
F0
ssS'9'
(dp406
g393
I50
sg394
S''
sg395
S'1'
sg396
S'9'
sg397
F0
ssS'8'
(dp407
g393
I50
sg394
S''
sg395
S'1'
sg396
S'8'
sg397
F0
sssS'maxAssault'
p408
I0
sS'thrust'
p409
F50
sS'position'
p410
g227
sg376
F24
sS'currentSP'
p411
I0
sS'jamming'
p412
I0
sS'maxPower'
p413
I150
sS'currentComps'
p414
I10
ssg237
(dp415
g368
I0
sg381
I0
sg382
I0
sg383
I0
sg384
S''
sg385
I0
sg30
(dp416
S'1'
(dp417
S'droneID'
p418
S''
sS'currentAmmo'
p419
I0
sS'currentLock'
p420
F0
sS'facing'
p421
F90
sS'maxLock'
p422
F2.5
sS'currentPower'
p423
F0
sS'maxHP'
p424
I300
sS'operational'
p425
I1
sg395
S'14'
p426
sg396
S'1'
sg393
I300
sssg375
I0
sg387
I0
sg388
F10000
sg389
I0
sg48
(dp427
S'10'
p428
(dp429
g393
I50
sg394
S''
sg395
g402
sg396
g428
sg397
I36
ssS'1'
(dp430
g393
I50
sg394
S'1'
sg395
g260
sg396
S'1'
sg397
F0
ssS'3'
(dp431
g393
I50
sg394
S'1'
sg395
g260
sg396
S'3'
sg397
F0
ssS'2'
(dp432
g393
I50
sg394
S'1'
sg395
g260
sg396
S'2'
sg397
F0
ssS'5'
(dp433
g393
I50
sg394
S'1'
sg395
g260
sg396
S'5'
sg397
F0
ssS'4'
(dp434
g393
I50
sg394
S'1'
sg395
g260
sg396
S'4'
sg397
F0
ssS'7'
(dp435
g393
I50
sg394
S''
sg395
S'7'
sg396
S'7'
sg397
F0
ssS'6'
(dp436
g393
I50
sg394
S'1'
sg395
g260
sg396
S'6'
sg397
F0
ssS'9'
(dp437
g393
I50
sg394
S''
sg395
g402
sg396
S'9'
sg397
I36
ssS'8'
(dp438
g393
I50
sg394
S''
sg395
S'4'
sg396
S'8'
sg397
F0
sssg408
I0
sg409
F0
sg410
g237
sg376
F24
sg411
I0
sg412
I0
sg413
I50
sg414
I10
ssg245
(dp439
g368
I0
sg381
I0
sg382
I0
sg383
I0
sg384
S''
sg385
I0
sg30
(dp440
S'1'
(dp441
g418
S''
sg419
I0
sg420
F0
sg421
F90
sg422
F2.5
sg423
F0
sg424
I300
sg425
I1
sg395
g426
sg396
S'1'
sg393
I300
ssS'2'
(dp442
g418
S''
sg419
I0
sg420
F0
sg421
F0
sg422
F0.29999999999999999
sg423
F0
sg424
I200
sg425
I1
sg395
S'4'
sg396
S'2'
sg393
I200
sssg375
I0
sg387
I0
sg388
F10000
sg389
I0
sg48
(dp443
S'10'
p444
(dp445
g393
I50
sg394
S'2'
sg395
g260
sg396
g444
sg397
F0
ssS'1'
(dp446
g393
I50
sg394
S'1'
sg395
g260
sg396
S'1'
sg397
F0
ssS'3'
(dp447
g393
I50
sg394
S'1'
sg395
g260
sg396
S'3'
sg397
F0
ssS'2'
(dp448
g393
I50
sg394
S'1'
sg395
g260
sg396
S'2'
sg397
F0
ssS'5'
(dp449
g393
I50
sg394
S'1'
sg395
g260
sg396
S'5'
sg397
F0
ssS'4'
(dp450
g393
I50
sg394
S'1'
sg395
g260
sg396
S'4'
sg397
F0
ssS'7'
(dp451
g393
I50
sg394
S'2'
sg395
g260
sg396
S'7'
sg397
F0
ssS'6'
(dp452
g393
I50
sg394
S'1'
sg395
g260
sg396
S'6'
sg397
F0
ssS'9'
(dp453
g393
I50
sg394
S'2'
sg395
g260
sg396
S'9'
sg397
F0
ssS'8'
(dp454
g393
I50
sg394
S'2'
sg395
g260
sg396
S'8'
sg397
F0
sssg408
I0
sg409
I0
sg410
g245
sg376
I0
sg411
I0
sg412
I0
sg413
I0
sg414
I10
ssg253
(dp455
g368
I0
sg381
I0
sg382
I0
sg383
I0
sg384
S''
sg385
I0
sg30
(dp456
sg375
I0
sg387
I0
sg388
F10000
sg389
I0
sg48
(dp457
S'10'
p458
(dp459
g393
I50
sg394
S''
sg395
S'1'
sg396
g458
sg397
F0
ssS'1'
(dp460
g393
I50
sg394
S''
sg395
S'7'
sg396
S'1'
sg397
F0
ssS'3'
(dp461
g393
I50
sg394
S''
sg395
S'7'
sg396
S'3'
sg397
F0
ssS'2'
(dp462
g393
I50
sg394
S''
sg395
S'7'
sg396
S'2'
sg397
F0
ssS'5'
(dp463
g393
I50
sg394
S''
sg395
S'4'
sg396
S'5'
sg397
F0
ssS'4'
(dp464
g393
I50
sg394
S''
sg395
S'7'
sg396
S'4'
sg397
F0
ssS'7'
(dp465
g393
I50
sg394
S''
sg395
S'1'
sg396
S'7'
sg397
F0
ssS'6'
(dp466
g393
I50
sg394
S''
sg395
S'1'
sg396
S'6'
sg397
F0
ssS'9'
(dp467
g393
I50
sg394
S''
sg395
S'1'
sg396
S'9'
sg397
F0
ssS'8'
(dp468
g393
I50
sg394
S''
sg395
S'1'
sg396
S'8'
sg397
F0
sssg408
I0
sg409
F50
sg410
g253
sg376
F24
sg411
I0
sg412
I0
sg413
I200
sg414
I10
sssS'strength'
p469
F100
sg185
(lp470
g370
ag188
ag371
ag372
ag373
ag193
asg396
g197
sg195
(lp471
g9
ag223
ag279
ag323
aS'421'
p472
aS'420'
p473
aS'422'
p474
aS'419'
p475
asS'isAssault'
p476
I0
sg412
I0
sS'currentBattery'
p477
F0
sS'accel'
p478
F2
sg423
F400
sg409
F100
sS'captainID'
p479
S'344'
p480
sS'empireID'
p481
S'0'
sS'setX'
p482
I-22
sS'setY'
p483
I-23
sS'fromSystem'
p484
g192
sS'repairCost'
p485
(lp486
I0
aI0
aI0
aI0
asS'isTransport'
p487
I0
sS'name'
p488
S'HCO9-Neutral-HCO-344'
p489
sg382
I0
sg421
F0
sS'designID'
p490
S'9'
sS'range'
p491
F32
sg388
F50000
sS'systemGrid'
p492
I6
sS'posX'
p493
F44.666666666666686
sS'posY'
p494
F-22.999999999999986
sg408
I0
ssg198
(dp495
g368
I0
sg12
(lp496
g370
ag188
ag371
ag372
ag373
ag193
asg374
S''
sg375
I0
sg376
F30.719999999999999
sg377
F1000
sg378
g192
sg21
(dp497
g227
(dp498
g368
I0
sg381
I0
sg382
I0
sg383
I0
sg384
S''
sg385
I0
sg30
(dp499
S'1'
(dp500
g418
S''
sg419
I0
sg420
F0
sg421
F0
sg422
F0.29999999999999999
sg423
F0
sg424
I200
sg425
I1
sg395
S'4'
sg396
S'1'
sg393
I200
sssg375
I0
sg387
I0
sg388
F10000
sg389
I0
sg48
(dp501
S'10'
p502
(dp503
g393
I50
sg394
S''
sg395
S'1'
sg396
g502
sg397
F0
ssS'1'
(dp504
g393
I50
sg394
S'1'
sg395
g260
sg396
S'1'
sg397
F0
ssS'3'
(dp505
g393
I50
sg394
S'1'
sg395
g260
sg396
S'3'
sg397
F0
ssS'2'
(dp506
g393
I50
sg394
S'1'
sg395
g260
sg396
S'2'
sg397
F0
ssS'5'
(dp507
g393
I50
sg394
S''
sg395
S'7'
sg396
S'5'
sg397
F0
ssS'4'
(dp508
g393
I50
sg394
S'1'
sg395
g260
sg396
S'4'
sg397
F0
ssS'7'
(dp509
g393
I50
sg394
S''
sg395
S'7'
sg396
S'7'
sg397
F0
ssS'6'
(dp510
g393
I50
sg394
S''
sg395
S'7'
sg396
S'6'
sg397
F0
ssS'9'
(dp511
g393
I50
sg394
S''
sg395
S'1'
sg396
S'9'
sg397
F0
ssS'8'
(dp512
g393
I50
sg394
S''
sg395
S'4'
sg396
S'8'
sg397
F0
sssg408
I0
sg409
F20
sg410
g227
sg376
F24
sg411
I0
sg412
I0
sg413
I150
sg414
I10
ssg237
(dp513
g368
I0
sg381
I0
sg382
I0
sg383
I0
sg384
S''
sg385
I0
sg30
(dp514
S'1'
(dp515
g418
S''
sg419
I0
sg420
F0
sg421
F270
sg422
F3
sg423
F0
sg424
I400
sg425
I1
sg395
S'36'
p516
sg396
S'1'
sg393
I400
sssg375
I0
sg387
I0
sg388
F10000
sg389
I0
sg48
(dp517
S'10'
p518
(dp519
g393
I50
sg394
S''
sg395
S'57'
p520
sg396
g518
sg397
I24
ssS'1'
(dp521
g393
I50
sg394
S'1'
sg395
g260
sg396
S'1'
sg397
F0
ssS'3'
(dp522
g393
I50
sg394
S'1'
sg395
g260
sg396
S'3'
sg397
F0
ssS'2'
(dp523
g393
I50
sg394
S'1'
sg395
g260
sg396
S'2'
sg397
F0
ssS'5'
(dp524
g393
I50
sg394
S'1'
sg395
g260
sg396
S'5'
sg397
F0
ssS'4'
(dp525
g393
I50
sg394
S'1'
sg395
g260
sg396
S'4'
sg397
F0
ssS'7'
(dp526
g393
I50
sg394
S'1'
sg395
g260
sg396
S'7'
sg397
F0
ssS'6'
(dp527
g393
I50
sg394
S'1'
sg395
g260
sg396
S'6'
sg397
F0
ssS'9'
(dp528
g393
I50
sg394
S''
sg395
g520
sg396
S'9'
sg397
I24
ssS'8'
(dp529
g393
I50
sg394
S'1'
sg395
g260
sg396
S'8'
sg397
F0
sssg408
I0
sg409
F0
sg410
g237
sg376
F0
sg411
I0
sg412
I0
sg413
I0
sg414
I10
ssg245
(dp530
g368
I0
sg381
I0
sg382
I0
sg383
I0
sg384
S''
sg385
I0
sg30
(dp531
S'1'
(dp532
g418
S''
sg419
I0
sg420
F0
sg421
F270
sg422
F3
sg423
F0
sg424
I400
sg425
I1
sg395
g516
sg396
S'1'
sg393
I400
sssg375
I0
sg387
I0
sg388
F10000
sg389
I0
sg48
(dp533
S'10'
p534
(dp535
g393
I50
sg394
S''
sg395
g520
sg396
g534
sg397
I24
ssS'1'
(dp536
g393
I50
sg394
S'1'
sg395
g260
sg396
S'1'
sg397
F0
ssS'3'
(dp537
g393
I50
sg394
S'1'
sg395
g260
sg396
S'3'
sg397
F0
ssS'2'
(dp538
g393
I50
sg394
S'1'
sg395
g260
sg396
S'2'
sg397
F0
ssS'5'
(dp539
g393
I50
sg394
S'1'
sg395
g260
sg396
S'5'
sg397
F0
ssS'4'
(dp540
g393
I50
sg394
S'1'
sg395
g260
sg396
S'4'
sg397
F0
ssS'7'
(dp541
g393
I50
sg394
S'1'
sg395
g260
sg396
S'7'
sg397
F0
ssS'6'
(dp542
g393
I50
sg394
S'1'
sg395
g260
sg396
S'6'
sg397
F0
ssS'9'
(dp543
g393
I50
sg394
S''
sg395
g520
sg396
S'9'
sg397
I24
ssS'8'
(dp544
g393
I50
sg394
S'1'
sg395
g260
sg396
S'8'
sg397
F0
sssg408
I0
sg409
F0
sg410
g245
sg376
F0
sg411
I0
sg412
I0
sg413
I0
sg414
I10
ssg253
(dp545
g368
I0
sg381
I0
sg382
I0
sg383
I0
sg384
S''
sg385
I0
sg30
(dp546
sg375
I0
sg387
I0
sg388
F10000
sg389
I0
sg48
(dp547
S'10'
p548
(dp549
g393
I50
sg394
S''
sg395
S'1'
sg396
g548
sg397
F0
ssS'1'
(dp550
g393
I50
sg394
S''
sg395
S'7'
sg396
S'1'
sg397
F0
ssS'3'
(dp551
g393
I50
sg394
S''
sg395
S'7'
sg396
S'3'
sg397
F0
ssS'2'
(dp552
g393
I50
sg394
S''
sg395
S'7'
sg396
S'2'
sg397
F0
ssS'5'
(dp553
g393
I50
sg394
S''
sg395
S'4'
sg396
S'5'
sg397
F0
ssS'4'
(dp554
g393
I50
sg394
S''
sg395
S'7'
sg396
S'4'
sg397
F0
ssS'7'
(dp555
g393
I50
sg394
S''
sg395
S'1'
sg396
S'7'
sg397
F0
ssS'6'
(dp556
g393
I50
sg394
S''
sg395
S'1'
sg396
S'6'
sg397
F0
ssS'9'
(dp557
g393
I50
sg394
S''
sg395
S'1'
sg396
S'9'
sg397
F0
ssS'8'
(dp558
g393
I50
sg394
S''
sg395
S'1'
sg396
S'8'
sg397
F0
sssg408
I0
sg409
F50
sg410
g253
sg376
F24
sg411
I0
sg412
I0
sg413
I200
sg414
I10
sssg469
F100
sg185
(lp559
g370
ag188
ag371
ag372
ag373
ag193
asg396
g198
sg195
(lp560
g9
ag223
ag279
ag323
ag472
ag473
ag474
ag475
asg476
I0
sg412
I0
sg477
F0
sg478
F1.3999999999999999
sg423
F350
sg409
F70
sg479
S'345'
p561
sg481
S'0'
sg482
I-4
sg483
I-1
sg484
g192
sg485
(lp562
I0
aI0
aI0
aI0
asg487
I0
sg488
S'HCO11-Neutral-HCO-345'
p563
sg382
I0
sg421
F0
sg490
S'11'
p564
sg491
F48
sg388
F50000
sg492
I6
sg493
F62.666666666666686
sg494
F-0.99999999999998579
sg408
I0
ssg199
(dp565
g368
I0
sg12
(lp566
g370
ag188
ag371
ag372
ag373
ag193
asg374
S''
sg375
I0
sg376
F46.079999999999998
sg377
F1000
sg378
g192
sg21
(dp567
g227
(dp568
g368
I0
sg381
I0
sg382
I0
sg383
I0
sg384
S''
sg385
I0
sg30
(dp569
sg375
I0
sg387
I0
sg388
F10000
sg389
I0
sg48
(dp570
g391
(dp571
g393
I50
sg394
S''
sg395
S'1'
sg396
g391
sg397
F0
ssS'1'
(dp572
g393
I50
sg394
S''
sg395
S'7'
sg396
S'1'
sg397
F0
ssS'3'
(dp573
g393
I50
sg394
S''
sg395
S'7'
sg396
S'3'
sg397
F0
ssS'2'
(dp574
g393
I50
sg394
S''
sg395
S'7'
sg396
S'2'
sg397
F0
ssS'5'
(dp575
g393
I50
sg394
S''
sg395
g402
sg396
S'5'
sg397
I36
ssS'4'
(dp576
g393
I50
sg394
S''
sg395
S'4'
sg396
S'4'
sg397
F0
ssS'7'
(dp577
g393
I50
sg394
S''
sg395
S'1'
sg396
S'7'
sg397
F0
ssS'6'
(dp578
g393
I50
sg394
S''
sg395
S'1'
sg396
S'6'
sg397
F0
ssS'9'
(dp579
g393
I50
sg394
S''
sg395
S'1'
sg396
S'9'
sg397
F0
ssS'8'
(dp580
g393
I50
sg394
S''
sg395
S'1'
sg396
S'8'
sg397
F0
sssg408
I0
sg409
F50
sg410
g227
sg376
F24
sg411
I0
sg412
I0
sg413
I150
sg414
I10
ssg237
(dp581
g368
I0
sg381
I0
sg382
I0
sg383
I0
sg384
S''
sg385
I0
sg30
(dp582
S'1'
(dp583
g418
S''
sg419
I0
sg420
F0
sg421
F90
sg422
F2.5
sg423
F0
sg424
I300
sg425
I1
sg395
g426
sg396
S'1'
sg393
I300
sssg375
I0
sg387
I0
sg388
F10000
sg389
I0
sg48
(dp584
g428
(dp585
g393
I50
sg394
S''
sg395
g402
sg396
g428
sg397
I36
ssS'1'
(dp586
g393
I50
sg394
S'1'
sg395
g260
sg396
S'1'
sg397
F0
ssS'3'
(dp587
g393
I50
sg394
S'1'
sg395
g260
sg396
S'3'
sg397
F0
ssS'2'
(dp588
g393
I50
sg394
S'1'
sg395
g260
sg396
S'2'
sg397
F0
ssS'5'
(dp589
g393
I50
sg394
S'1'
sg395
g260
sg396
S'5'
sg397
F0
ssS'4'
(dp590
g393
I50
sg394
S'1'
sg395
g260
sg396
S'4'
sg397
F0
ssS'7'
(dp591
g393
I50
sg394
S''
sg395
S'7'
sg396
S'7'
sg397
F0
ssS'6'
(dp592
g393
I50
sg394
S'1'
sg395
g260
sg396
S'6'
sg397
F0
ssS'9'
(dp593
g393
I50
sg394
S''
sg395
g402
sg396
S'9'
sg397
I36
ssS'8'
(dp594
g393
I50
sg394
S''
sg395
S'4'
sg396
S'8'
sg397
F0
sssg408
I0
sg409
F0
sg410
g237
sg376
F24
sg411
I0
sg412
I0
sg413
I50
sg414
I10
ssg245
(dp595
g368
I0
sg381
I0
sg382
I0
sg383
I0
sg384
S''
sg385
I0
sg30
(dp596
S'1'
(dp597
g418
S''
sg419
I0
sg420
F0
sg421
F90
sg422
F2.5
sg423
F0
sg424
I300
sg425
I1
sg395
g426
sg396
S'1'
sg393
I300
ssS'2'
(dp598
g418
S''
sg419
I0
sg420
F0
sg421
F0
sg422
F0.29999999999999999
sg423
F0
sg424
I200
sg425
I1
sg395
S'4'
sg396
S'2'
sg393
I200
sssg375
I0
sg387
I0
sg388
F10000
sg389
I0
sg48
(dp599
g444
(dp600
g393
I50
sg394
S'2'
sg395
g260
sg396
g444
sg397
F0
ssS'1'
(dp601
g393
I50
sg394
S'1'
sg395
g260
sg396
S'1'
sg397
F0
ssS'3'
(dp602
g393
I50
sg394
S'1'
sg395
g260
sg396
S'3'
sg397
F0
ssS'2'
(dp603
g393
I50
sg394
S'1'
sg395
g260
sg396
S'2'
sg397
F0
ssS'5'
(dp604
g393
I50
sg394
S'1'
sg395
g260
sg396
S'5'
sg397
F0
ssS'4'
(dp605
g393
I50
sg394
S'1'
sg395
g260
sg396
S'4'
sg397
F0
ssS'7'
(dp606
g393
I50
sg394
S'2'
sg395
g260
sg396
S'7'
sg397
F0
ssS'6'
(dp607
g393
I50
sg394
S'1'
sg395
g260
sg396
S'6'
sg397
F0
ssS'9'
(dp608
g393
I50
sg394
S'2'
sg395
g260
sg396
S'9'
sg397
F0
ssS'8'
(dp609
g393
I50
sg394
S'2'
sg395
g260
sg396
S'8'
sg397
F0
sssg408
I0
sg409
I0
sg410
g245
sg376
I0
sg411
I0
sg412
I0
sg413
I0
sg414
I10
ssg253
(dp610
g368
I0
sg381
I0
sg382
I0
sg383
I0
sg384
S''
sg385
I0
sg30
(dp611
sg375
I0
sg387
I0
sg388
F10000
sg389
I0
sg48
(dp612
g458
(dp613
g393
I50
sg394
S''
sg395
S'1'
sg396
g458
sg397
F0
ssS'1'
(dp614
g393
I50
sg394
S''
sg395
S'7'
sg396
S'1'
sg397
F0
ssS'3'
(dp615
g393
I50
sg394
S''
sg395
S'7'
sg396
S'3'
sg397
F0
ssS'2'
(dp616
g393
I50
sg394
S''
sg395
S'7'
sg396
S'2'
sg397
F0
ssS'5'
(dp617
g393
I50
sg394
S''
sg395
S'4'
sg396
S'5'
sg397
F0
ssS'4'
(dp618
g393
I50
sg394
S''
sg395
S'7'
sg396
S'4'
sg397
F0
ssS'7'
(dp619
g393
I50
sg394
S''
sg395
S'1'
sg396
S'7'
sg397
F0
ssS'6'
(dp620
g393
I50
sg394
S''
sg395
S'1'
sg396
S'6'
sg397
F0
ssS'9'
(dp621
g393
I50
sg394
S''
sg395
S'1'
sg396
S'9'
sg397
F0
ssS'8'
(dp622
g393
I50
sg394
S''
sg395
S'1'
sg396
S'8'
sg397
F0
sssg408
I0
sg409
F50
sg410
g253
sg376
F24
sg411
I0
sg412
I0
sg413
I200
sg414
I10
sssg469
F100
sg185
(lp623
g370
ag188
ag371
ag372
ag373
ag193
asg396
g199
sg195
(lp624
g9
ag223
ag279
ag323
ag472
ag473
ag474
ag475
asg476
I0
sg412
I0
sg477
F0
sg478
F2
sg423
F400
sg409
F100
sg479
S'340'
p625
sg481
S'0'
sg482
I-29
sg483
I-8
sg484
g192
sg485
(lp626
I0
aI0
aI0
aI0
asg487
I0
sg488
S'HCO9-Neutral-HCO-340'
p627
sg382
I0
sg421
F0
sg490
S'9'
sg491
F32
sg388
F50000
sg492
I6
sg493
F37.666666666666686
sg494
F-7.9999999999999858
sg408
I0
ssg200
(dp628
g368
I0
sg12
(lp629
g370
ag188
ag371
ag372
ag373
ag193
asg374
S''
sg375
I0
sg376
F46.079999999999998
sg377
F1000
sg378
g192
sg21
(dp630
g227
(dp631
g368
I0
sg381
I0
sg382
I0
sg383
I0
sg384
S''
sg385
I0
sg30
(dp632
sg375
I0
sg387
I0
sg388
F10000
sg389
I0
sg48
(dp633
g391
(dp634
g393
I50
sg394
S''
sg395
S'1'
sg396
g391
sg397
F0
ssS'1'
(dp635
g393
I50
sg394
S''
sg395
S'7'
sg396
S'1'
sg397
F0
ssS'3'
(dp636
g393
I50
sg394
S''
sg395
S'7'
sg396
S'3'
sg397
F0
ssS'2'
(dp637
g393
I50
sg394
S''
sg395
S'7'
sg396
S'2'
sg397
F0
ssS'5'
(dp638
g393
I50
sg394
S''
sg395
g402
sg396
S'5'
sg397
I36
ssS'4'
(dp639
g393
I50
sg394
S''
sg395
S'4'
sg396
S'4'
sg397
F0
ssS'7'
(dp640
g393
I50
sg394
S''
sg395
S'1'
sg396
S'7'
sg397
F0
ssS'6'
(dp641
g393
I50
sg394
S''
sg395
S'1'
sg396
S'6'
sg397
F0
ssS'9'
(dp642
g393
I50
sg394
S''
sg395
S'1'
sg396
S'9'
sg397
F0
ssS'8'
(dp643
g393
I50
sg394
S''
sg395
S'1'
sg396
S'8'
sg397
F0
sssg408
I0
sg409
F50
sg410
g227
sg376
F24
sg411
I0
sg412
I0
sg413
I150
sg414
I10
ssg237
(dp644
g368
I0
sg381
I0
sg382
I0
sg383
I0
sg384
S''
sg385
I0
sg30
(dp645
S'1'
(dp646
g418
S''
sg419
I0
sg420
F0
sg421
F90
sg422
F2.5
sg423
F0
sg424
I300
sg425
I1
sg395
g426
sg396
S'1'
sg393
I300
sssg375
I0
sg387
I0
sg388
F10000
sg389
I0
sg48
(dp647
g428
(dp648
g393
I50
sg394
S''
sg395
g402
sg396
g428
sg397
I36
ssS'1'
(dp649
g393
I50
sg394
S'1'
sg395
g260
sg396
S'1'
sg397
F0
ssS'3'
(dp650
g393
I50
sg394
S'1'
sg395
g260
sg396
S'3'
sg397
F0
ssS'2'
(dp651
g393
I50
sg394
S'1'
sg395
g260
sg396
S'2'
sg397
F0
ssS'5'
(dp652
g393
I50
sg394
S'1'
sg395
g260
sg396
S'5'
sg397
F0
ssS'4'
(dp653
g393
I50
sg394
S'1'
sg395
g260
sg396
S'4'
sg397
F0
ssS'7'
(dp654
g393
I50
sg394
S''
sg395
S'7'
sg396
S'7'
sg397
F0
ssS'6'
(dp655
g393
I50
sg394
S'1'
sg395
g260
sg396
S'6'
sg397
F0
ssS'9'
(dp656
g393
I50
sg394
S''
sg395
g402
sg396
S'9'
sg397
I36
ssS'8'
(dp657
g393
I50
sg394
S''
sg395
S'4'
sg396
S'8'
sg397
F0
sssg408
I0
sg409
F0
sg410
g237
sg376
F24
sg411
I0
sg412
I0
sg413
I50
sg414
I10
ssg245
(dp658
g368
I0
sg381
I0
sg382
I0
sg383
I0
sg384
S''
sg385
I0
sg30
(dp659
S'1'
(dp660
g418
S''
sg419
I0
sg420
F0
sg421
F90
sg422
F2.5
sg423
F0
sg424
I300
sg425
I1
sg395
g426
sg396
S'1'
sg393
I300
ssS'2'
(dp661
g418
S''
sg419
I0
sg420
F0
sg421
F0
sg422
F0.29999999999999999
sg423
F0
sg424
I200
sg425
I1
sg395
S'4'
sg396
S'2'
sg393
I200
sssg375
I0
sg387
I0
sg388
F10000
sg389
I0
sg48
(dp662
g444
(dp663
g393
I50
sg394
S'2'
sg395
g260
sg396
g444
sg397
F0
ssS'1'
(dp664
g393
I50
sg394
S'1'
sg395
g260
sg396
S'1'
sg397
F0
ssS'3'
(dp665
g393
I50
sg394
S'1'
sg395
g260
sg396
S'3'
sg397
F0
ssS'2'
(dp666
g393
I50
sg394
S'1'
sg395
g260
sg396
S'2'
sg397
F0
ssS'5'
(dp667
g393
I50
sg394
S'1'
sg395
g260
sg396
S'5'
sg397
F0
ssS'4'
(dp668
g393
I50
sg394
S'1'
sg395
g260
sg396
S'4'
sg397
F0
ssS'7'
(dp669
g393
I50
sg394
S'2'
sg395
g260
sg396
S'7'
sg397
F0
ssS'6'
(dp670
g393
I50
sg394
S'1'
sg395
g260
sg396
S'6'
sg397
F0
ssS'9'
(dp671
g393
I50
sg394
S'2'
sg395
g260
sg396
S'9'
sg397
F0
ssS'8'
(dp672
g393
I50
sg394
S'2'
sg395
g260
sg396
S'8'
sg397
F0
sssg408
I0
sg409
I0
sg410
g245
sg376
I0
sg411
I0
sg412
I0
sg413
I0
sg414
I10
ssg253
(dp673
g368
I0
sg381
I0
sg382
I0
sg383
I0
sg384
S''
sg385
I0
sg30
(dp674
sg375
I0
sg387
I0
sg388
F10000
sg389
I0
sg48
(dp675
g458
(dp676
g393
I50
sg394
S''
sg395
S'1'
sg396
g458
sg397
F0
ssS'1'
(dp677
g393
I50
sg394
S''
sg395
S'7'
sg396
S'1'
sg397
F0
ssS'3'
(dp678
g393
I50
sg394
S''
sg395
S'7'
sg396
S'3'
sg397
F0
ssS'2'
(dp679
g393
I50
sg394
S''
sg395
S'7'
sg396
S'2'
sg397
F0
ssS'5'
(dp680
g393
I50
sg394
S''
sg395
S'4'
sg396
S'5'
sg397
F0
ssS'4'
(dp681
g393
I50
sg394
S''
sg395
S'7'
sg396
S'4'
sg397
F0
ssS'7'
(dp682
g393
I50
sg394
S''
sg395
S'1'
sg396
S'7'
sg397
F0
ssS'6'
(dp683
g393
I50
sg394
S''
sg395
S'1'
sg396
S'6'
sg397
F0
ssS'9'
(dp684
g393
I50
sg394
S''
sg395
S'1'
sg396
S'9'
sg397
F0
ssS'8'
(dp685
g393
I50
sg394
S''
sg395
S'1'
sg396
S'8'
sg397
F0
sssg408
I0
sg409
F50
sg410
g253
sg376
F24
sg411
I0
sg412
I0
sg413
I200
sg414
I10
sssg469
F100
sg185
(lp686
g370
ag188
ag371
ag372
ag373
ag193
asg396
g200
sg195
(lp687
g9
ag223
ag279
ag323
ag472
ag473
ag474
ag475
asg476
I0
sg412
I0
sg477
F0
sg478
F2
sg423
F400
sg409
F100
sg479
S'341'
p688
sg481
S'0'
sg482
I-29
sg483
I-4
sg484
g192
sg485
(lp689
I0
aI0
aI0
aI0
asg487
I0
sg488
S'HCO9-Neutral-HCO-341'
p690
sg382
I0
sg421
F0
sg490
S'9'
sg491
F32
sg388
F50000
sg492
I6
sg493
F37.666666666666686
sg494
F-3.9999999999999858
sg408
I0
ssg201
(dp691
g368
I0
sg12
(lp692
g370
ag188
ag371
ag372
ag373
ag193
asg374
S''
sg375
I0
sg376
F30.719999999999999
sg377
F1000
sg378
g192
sg21
(dp693
g227
(dp694
g368
I0
sg381
I0
sg382
I0
sg383
I0
sg384
S''
sg385
I0
sg30
(dp695
S'1'
(dp696
g418
S''
sg419
I0
sg420
F0
sg421
F0
sg422
F0.29999999999999999
sg423
F0
sg424
I200
sg425
I1
sg395
S'4'
sg396
S'1'
sg393
I200
sssg375
I0
sg387
I0
sg388
F10000
sg389
I0
sg48
(dp697
g502
(dp698
g393
I50
sg394
S''
sg395
S'1'
sg396
g502
sg397
F0
ssS'1'
(dp699
g393
I50
sg394
S'1'
sg395
g260
sg396
S'1'
sg397
F0
ssS'3'
(dp700
g393
I50
sg394
S'1'
sg395
g260
sg396
S'3'
sg397
F0
ssS'2'
(dp701
g393
I50
sg394
S'1'
sg395
g260
sg396
S'2'
sg397
F0
ssS'5'
(dp702
g393
I50
sg394
S''
sg395
S'7'
sg396
S'5'
sg397
F0
ssS'4'
(dp703
g393
I50
sg394
S'1'
sg395
g260
sg396
S'4'
sg397
F0
ssS'7'
(dp704
g393
I50
sg394
S''
sg395
S'7'
sg396
S'7'
sg397
F0
ssS'6'
(dp705
g393
I50
sg394
S''
sg395
S'7'
sg396
S'6'
sg397
F0
ssS'9'
(dp706
g393
I50
sg394
S''
sg395
S'1'
sg396
S'9'
sg397
F0
ssS'8'
(dp707
g393
I50
sg394
S''
sg395
S'4'
sg396
S'8'
sg397
F0
sssg408
I0
sg409
F20
sg410
g227
sg376
F24
sg411
I0
sg412
I0
sg413
I150
sg414
I10
ssg237
(dp708
g368
I0
sg381
I0
sg382
I0
sg383
I0
sg384
S''
sg385
I0
sg30
(dp709
S'1'
(dp710
g418
S''
sg419
I0
sg420
F0
sg421
F270
sg422
F3
sg423
F0
sg424
I400
sg425
I1
sg395
g516
sg396
S'1'
sg393
I400
sssg375
I0
sg387
I0
sg388
F10000
sg389
I0
sg48
(dp711
g518
(dp712
g393
I50
sg394
S''
sg395
g520
sg396
g518
sg397
I24
ssS'1'
(dp713
g393
I50
sg394
S'1'
sg395
g260
sg396
S'1'
sg397
F0
ssS'3'
(dp714
g393
I50
sg394
S'1'
sg395
g260
sg396
S'3'
sg397
F0
ssS'2'
(dp715
g393
I50
sg394
S'1'
sg395
g260
sg396
S'2'
sg397
F0
ssS'5'
(dp716
g393
I50
sg394
S'1'
sg395
g260
sg396
S'5'
sg397
F0
ssS'4'
(dp717
g393
I50
sg394
S'1'
sg395
g260
sg396
S'4'
sg397
F0
ssS'7'
(dp718
g393
I50
sg394
S'1'
sg395
g260
sg396
S'7'
sg397
F0
ssS'6'
(dp719
g393
I50
sg394
S'1'
sg395
g260
sg396
S'6'
sg397
F0
ssS'9'
(dp720
g393
I50
sg394
S''
sg395
g520
sg396
S'9'
sg397
I24
ssS'8'
(dp721
g393
I50
sg394
S'1'
sg395
g260
sg396
S'8'
sg397
F0
sssg408
I0
sg409
F0
sg410
g237
sg376
F0
sg411
I0
sg412
I0
sg413
I0
sg414
I10
ssg245
(dp722
g368
I0
sg381
I0
sg382
I0
sg383
I0
sg384
S''
sg385
I0
sg30
(dp723
S'1'
(dp724
g418
S''
sg419
I0
sg420
F0
sg421
F270
sg422
F3
sg423
F0
sg424
I400
sg425
I1
sg395
g516
sg396
S'1'
sg393
I400
sssg375
I0
sg387
I0
sg388
F10000
sg389
I0
sg48
(dp725
g534
(dp726
g393
I50
sg394
S''
sg395
g520
sg396
g534
sg397
I24
ssS'1'
(dp727
g393
I50
sg394
S'1'
sg395
g260
sg396
S'1'
sg397
F0
ssS'3'
(dp728
g393
I50
sg394
S'1'
sg395
g260
sg396
S'3'
sg397
F0
ssS'2'
(dp729
g393
I50
sg394
S'1'
sg395
g260
sg396
S'2'
sg397
F0
ssS'5'
(dp730
g393
I50
sg394
S'1'
sg395
g260
sg396
S'5'
sg397
F0
ssS'4'
(dp731
g393
I50
sg394
S'1'
sg395
g260
sg396
S'4'
sg397
F0
ssS'7'
(dp732
g393
I50
sg394
S'1'
sg395
g260
sg396
S'7'
sg397
F0
ssS'6'
(dp733
g393
I50
sg394
S'1'
sg395
g260
sg396
S'6'
sg397
F0
ssS'9'
(dp734
g393
I50
sg394
S''
sg395
g520
sg396
S'9'
sg397
I24
ssS'8'
(dp735
g393
I50
sg394
S'1'
sg395
g260
sg396
S'8'
sg397
F0
sssg408
I0
sg409
F0
sg410
g245
sg376
F0
sg411
I0
sg412
I0
sg413
I0
sg414
I10
ssg253
(dp736
g368
I0
sg381
I0
sg382
I0
sg383
I0
sg384
S''
sg385
I0
sg30
(dp737
sg375
I0
sg387
I0
sg388
F10000
sg389
I0
sg48
(dp738
g548
(dp739
g393
I50
sg394
S''
sg395
S'1'
sg396
g548
sg397
F0
ssS'1'
(dp740
g393
I50
sg394
S''
sg395
S'7'
sg396
S'1'
sg397
F0
ssS'3'
(dp741
g393
I50
sg394
S''
sg395
S'7'
sg396
S'3'
sg397
F0
ssS'2'
(dp742
g393
I50
sg394
S''
sg395
S'7'
sg396
S'2'
sg397
F0
ssS'5'
(dp743
g393
I50
sg394
S''
sg395
S'4'
sg396
S'5'
sg397
F0
ssS'4'
(dp744
g393
I50
sg394
S''
sg395
S'7'
sg396
S'4'
sg397
F0
ssS'7'
(dp745
g393
I50
sg394
S''
sg395
S'1'
sg396
S'7'
sg397
F0
ssS'6'
(dp746
g393
I50
sg394
S''
sg395
S'1'
sg396
S'6'
sg397
F0
ssS'9'
(dp747
g393
I50
sg394
S''
sg395
S'1'
sg396
S'9'
sg397
F0
ssS'8'
(dp748
g393
I50
sg394
S''
sg395
S'1'
sg396
S'8'
sg397
F0
sssg408
I0
sg409
F50
sg410
g253
sg376
F24
sg411
I0
sg412
I0
sg413
I200
sg414
I10
sssg469
F100
sg185
(lp749
g370
ag188
ag371
ag372
ag373
ag193
asg396
g201
sg195
(lp750
g9
ag223
ag279
ag323
ag472
ag473
ag474
ag475
asg476
I0
sg412
I0
sg477
F0
sg478
F1.3999999999999999
sg423
F350
sg409
F70
sg479
S'342'
p751
sg481
S'0'
sg482
I-14
sg483
I-13
sg484
g192
sg485
(lp752
I0
aI0
aI0
aI0
asg487
I0
sg488
S'HCO11-Neutral-HCO-342'
p753
sg382
I0
sg421
F0
sg490
g564
sg491
F48
sg388
F50000
sg492
I6
sg493
F52.666666666666686
sg494
F-12.999999999999986
sg408
I0
ssg202
(dp754
g368
I0
sg12
(lp755
g370
ag188
ag371
ag372
ag373
ag193
asg374
S''
sg375
I0
sg376
F46.079999999999998
sg377
F1000
sg378
g192
sg21
(dp756
g227
(dp757
g368
I0
sg381
I0
sg382
I0
sg383
I0
sg384
S''
sg385
I0
sg30
(dp758
sg375
I0
sg387
I0
sg388
F10000
sg389
I0
sg48
(dp759
g391
(dp760
g393
I50
sg394
S''
sg395
S'1'
sg396
g391
sg397
F0
ssS'1'
(dp761
g393
I50
sg394
S''
sg395
S'7'
sg396
S'1'
sg397
F0
ssS'3'
(dp762
g393
I50
sg394
S''
sg395
S'7'
sg396
S'3'
sg397
F0
ssS'2'
(dp763
g393
I50
sg394
S''
sg395
S'7'
sg396
S'2'
sg397
F0
ssS'5'
(dp764
g393
I50
sg394
S''
sg395
g402
sg396
S'5'
sg397
I36
ssS'4'
(dp765
g393
I50
sg394
S''
sg395
S'4'
sg396
S'4'
sg397
F0
ssS'7'
(dp766
g393
I50
sg394
S''
sg395
S'1'
sg396
S'7'
sg397
F0
ssS'6'
(dp767
g393
I50
sg394
S''
sg395
S'1'
sg396
S'6'
sg397
F0
ssS'9'
(dp768
g393
I50
sg394
S''
sg395
S'1'
sg396
S'9'
sg397
F0
ssS'8'
(dp769
g393
I50
sg394
S''
sg395
S'1'
sg396
S'8'
sg397
F0
sssg408
I0
sg409
F50
sg410
g227
sg376
F24
sg411
I0
sg412
I0
sg413
I150
sg414
I10
ssg237
(dp770
g368
I0
sg381
I0
sg382
I0
sg383
I0
sg384
S''
sg385
I0
sg30
(dp771
S'1'
(dp772
g418
S''
sg419
I0
sg420
F0
sg421
F90
sg422
F2.5
sg423
F0
sg424
I300
sg425
I1
sg395
g426
sg396
S'1'
sg393
I300
sssg375
I0
sg387
I0
sg388
F10000
sg389
I0
sg48
(dp773
g428
(dp774
g393
I50
sg394
S''
sg395
g402
sg396
g428
sg397
I36
ssS'1'
(dp775
g393
I50
sg394
S'1'
sg395
g260
sg396
S'1'
sg397
F0
ssS'3'
(dp776
g393
I50
sg394
S'1'
sg395
g260
sg396
S'3'
sg397
F0
ssS'2'
(dp777
g393
I50
sg394
S'1'
sg395
g260
sg396
S'2'
sg397
F0
ssS'5'
(dp778
g393
I50
sg394
S'1'
sg395
g260
sg396
S'5'
sg397
F0
ssS'4'
(dp779
g393
I50
sg394
S'1'
sg395
g260
sg396
S'4'
sg397
F0
ssS'7'
(dp780
g393
I50
sg394
S''
sg395
S'7'
sg396
S'7'
sg397
F0
ssS'6'
(dp781
g393
I50
sg394
S'1'
sg395
g260
sg396
S'6'
sg397
F0
ssS'9'
(dp782
g393
I50
sg394
S''
sg395
g402
sg396
S'9'
sg397
I36
ssS'8'
(dp783
g393
I50
sg394
S''
sg395
S'4'
sg396
S'8'
sg397
F0
sssg408
I0
sg409
F0
sg410
g237
sg376
F24
sg411
I0
sg412
I0
sg413
I50
sg414
I10
ssg245
(dp784
g368
I0
sg381
I0
sg382
I0
sg383
I0
sg384
S''
sg385
I0
sg30
(dp785
S'1'
(dp786
g418
S''
sg419
I0
sg420
F0
sg421
F90
sg422
F2.5
sg423
F0
sg424
I300
sg425
I1
sg395
g426
sg396
S'1'
sg393
I300
ssS'2'
(dp787
g418
S''
sg419
I0
sg420
F0
sg421
F0
sg422
F0.29999999999999999
sg423
F0
sg424
I200
sg425
I1
sg395
S'4'
sg396
S'2'
sg393
I200
sssg375
I0
sg387
I0
sg388
F10000
sg389
I0
sg48
(dp788
g444
(dp789
g393
I50
sg394
S'2'
sg395
g260
sg396
g444
sg397
F0
ssS'1'
(dp790
g393
I50
sg394
S'1'
sg395
g260
sg396
S'1'
sg397
F0
ssS'3'
(dp791
g393
I50
sg394
S'1'
sg395
g260
sg396
S'3'
sg397
F0
ssS'2'
(dp792
g393
I50
sg394
S'1'
sg395
g260
sg396
S'2'
sg397
F0
ssS'5'
(dp793
g393
I50
sg394
S'1'
sg395
g260
sg396
S'5'
sg397
F0
ssS'4'
(dp794
g393
I50
sg394
S'1'
sg395
g260
sg396
S'4'
sg397
F0
ssS'7'
(dp795
g393
I50
sg394
S'2'
sg395
g260
sg396
S'7'
sg397
F0
ssS'6'
(dp796
g393
I50
sg394
S'1'
sg395
g260
sg396
S'6'
sg397
F0
ssS'9'
(dp797
g393
I50
sg394
S'2'
sg395
g260
sg396
S'9'
sg397
F0
ssS'8'
(dp798
g393
I50
sg394
S'2'
sg395
g260
sg396
S'8'
sg397
F0
sssg408
I0
sg409
I0
sg410
g245
sg376
I0
sg411
I0
sg412
I0
sg413
I0
sg414
I10
ssg253
(dp799
g368
I0
sg381
I0
sg382
I0
sg383
I0
sg384
S''
sg385
I0
sg30
(dp800
sg375
I0
sg387
I0
sg388
F10000
sg389
I0
sg48
(dp801
g458
(dp802
g393
I50
sg394
S''
sg395
S'1'
sg396
g458
sg397
F0
ssS'1'
(dp803
g393
I50
sg394
S''
sg395
S'7'
sg396
S'1'
sg397
F0
ssS'3'
(dp804
g393
I50
sg394
S''
sg395
S'7'
sg396
S'3'
sg397
F0
ssS'2'
(dp805
g393
I50
sg394
S''
sg395
S'7'
sg396
S'2'
sg397
F0
ssS'5'
(dp806
g393
I50
sg394
S''
sg395
S'4'
sg396
S'5'
sg397
F0
ssS'4'
(dp807
g393
I50
sg394
S''
sg395
S'7'
sg396
S'4'
sg397
F0
ssS'7'
(dp808
g393
I50
sg394
S''
sg395
S'1'
sg396
S'7'
sg397
F0
ssS'6'
(dp809
g393
I50
sg394
S''
sg395
S'1'
sg396
S'6'
sg397
F0
ssS'9'
(dp810
g393
I50
sg394
S''
sg395
S'1'
sg396
S'9'
sg397
F0
ssS'8'
(dp811
g393
I50
sg394
S''
sg395
S'1'
sg396
S'8'
sg397
F0
sssg408
I0
sg409
F50
sg410
g253
sg376
F24
sg411
I0
sg412
I0
sg413
I200
sg414
I10
sssg469
F100
sg185
(lp812
g370
ag188
ag371
ag372
ag373
ag193
asg396
g202
sg195
(lp813
g9
ag223
ag279
ag323
ag472
ag473
ag474
ag475
asg476
I0
sg412
I0
sg477
F0
sg478
F2
sg423
F400
sg409
F100
sg479
S'343'
p814
sg481
S'0'
sg482
I-8
sg483
I1
sg484
g192
sg485
(lp815
I0
aI0
aI0
aI0
asg487
I0
sg488
S'HCO9-Neutral-HCO-343'
p816
sg382
I0
sg421
F0
sg490
S'9'
sg491
F32
sg388
F50000
sg492
I6
sg493
F58.666666666666686
sg494
F1.0000000000000142
sg408
I0
ssg472
(dp817
g11
I0
sg12
(lp818
S'26'
p819
asg15
S''
sg16
I0
sg17
F56.840000000000003
sg18
F4000
sg19
g20
sg21
(dp820
S'aft'
p821
(dp822
g11
I0
sg25
I10
sg26
I0
sg27
I600
sg28
S'impact'
p823
sg29
I0
sg30
(dp824
S'1'
(dp825
g33
S''
sg34
I0
sg35
I0
sg36
F270
sg37
F2.7000000000000002
sg38
F600
sg39
I800
sg40
I1
sg41
S'7'
sg43
S'1'
sg44
I800
ssS'2'
(dp826
g33
S''
sg34
I1
sg35
I0
sg36
F270
sg37
F0.27000000000000002
sg38
F150
sg39
I400
sg40
I1
sg41
S'29'
p827
sg43
S'2'
sg44
I400
sssg16
I0
sg45
I0
sg46
F15600
sg47
I600
sg48
(dp828
S'11'
p829
(dp830
g44
I100
sg52
S'1'
sg41
S'64'
p831
sg43
g829
sg54
F0
ssS'10'
p832
(dp833
g44
I100
sg52
S'1'
sg41
g831
sg43
g832
sg54
F0
ssS'13'
p834
(dp835
g44
I100
sg52
S'2'
sg41
g831
sg43
g834
sg54
F0
ssS'12'
p836
(dp837
g44
I100
sg52
S'1'
sg41
g831
sg43
g836
sg54
F0
ssS'15'
p838
(dp839
g44
I100
sg52
S'2'
sg41
g831
sg43
g838
sg54
F0
ssS'14'
p840
(dp841
g44
I100
sg52
S'2'
sg41
g831
sg43
g840
sg54
F0
ssS'16'
p842
(dp843
g44
I100
sg52
S'2'
sg41
g831
sg43
g842
sg54
F0
ssS'1'
(dp844
g44
I100
sg52
S''
sg41
S'17'
p845
sg43
S'1'
sg54
F0
ssS'3'
(dp846
g44
I100
sg52
S''
sg41
S'5'
sg43
S'3'
sg54
F0
ssS'2'
(dp847
g44
I100
sg52
S''
sg41
S'32'
p848
sg43
S'2'
sg54
F0
ssS'5'
(dp849
g44
I100
sg52
S'1'
sg41
g831
sg43
S'5'
sg54
F0
ssS'4'
(dp850
g44
I100
sg52
S''
sg41
S'50'
p851
sg43
S'4'
sg54
I98
ssS'7'
(dp852
g44
I100
sg52
S'1'
sg41
g831
sg43
S'7'
sg54
F0
ssS'6'
(dp853
g44
I100
sg52
S'1'
sg41
g831
sg43
S'6'
sg54
F0
ssS'9'
(dp854
g44
I100
sg52
S'1'
sg41
g831
sg43
S'9'
sg54
F0
ssS'8'
(dp855
g44
I100
sg52
S'1'
sg41
g831
sg43
S'8'
sg54
F0
sssg80
I0
sg81
F0
sg82
S'aft'
p856
sg17
F45
sg83
I0
sg84
I0
sg85
I0
sg86
I16
ssS'star'
p857
(dp858
g11
I0
sg25
I20
sg26
I0
sg27
I600
sg28
g823
sg29
I0
sg30
(dp859
S'1'
(dp860
g33
S''
sg34
I0
sg35
I0
sg36
F270
sg37
F2.3999999999999999
sg38
F600
sg39
I800
sg40
I1
sg41
S'7'
sg43
S'1'
sg44
I800
ssS'2'
(dp861
g33
S''
sg34
I1
sg35
I0
sg36
F90
sg37
F0.23999999999999999
sg38
F150
sg39
I400
sg40
I1
sg41
S'29'
p862
sg43
S'2'
sg44
I400
sssg16
I0
sg45
I0
sg46
F15600
sg47
I600
sg48
(dp863
S'11'
p864
(dp865
g44
I100
sg52
S'1'
sg41
g831
sg43
g864
sg54
F0
ssS'10'
p866
(dp867
g44
I100
sg52
S'1'
sg41
g831
sg43
g866
sg54
F0
ssS'13'
p868
(dp869
g44
I100
sg52
S'2'
sg41
g831
sg43
g868
sg54
F0
ssS'12'
p870
(dp871
g44
I100
sg52
S'1'
sg41
g831
sg43
g870
sg54
F0
ssS'15'
p872
(dp873
g44
I100
sg52
S'2'
sg41
g831
sg43
g872
sg54
F0
ssS'14'
p874
(dp875
g44
I100
sg52
S'2'
sg41
g831
sg43
g874
sg54
F0
ssS'16'
p876
(dp877
g44
I100
sg52
S'2'
sg41
g831
sg43
g876
sg54
F0
ssS'1'
(dp878
g44
I100
sg52
S''
sg41
S'17'
p879
sg43
S'1'
sg54
F0
ssS'3'
(dp880
g44
I100
sg52
S''
sg41
S'32'
p881
sg43
S'3'
sg54
F0
ssS'2'
(dp882
g44
I100
sg52
S''
sg41
S'17'
p883
sg43
S'2'
sg54
F0
ssS'5'
(dp884
g44
I100
sg52
S'1'
sg41
g831
sg43
S'5'
sg54
F0
ssS'4'
(dp885
g44
I100
sg52
S''
sg41
S'50'
p886
sg43
S'4'
sg54
I100
ssS'7'
(dp887
g44
I100
sg52
S'1'
sg41
g831
sg43
S'7'
sg54
F0
ssS'6'
(dp888
g44
I100
sg52
S'1'
sg41
g831
sg43
S'6'
sg54
F0
ssS'9'
(dp889
g44
I100
sg52
S'1'
sg41
g831
sg43
S'9'
sg54
F0
ssS'8'
(dp890
g44
I100
sg52
S'1'
sg41
g831
sg43
S'8'
sg54
F0
sssg80
I0
sg81
F0
sg82
S'star'
p891
sg17
F0
sg83
I0
sg84
I0
sg85
I0
sg86
I16
ssS'port'
p892
(dp893
g11
I0
sg25
I0
sg26
I1400
sg27
I3600
sg28
g823
sg29
I4
sg30
(dp894
sg16
I0
sg45
I400
sg46
F14400
sg47
I3600
sg48
(dp895
S'11'
p896
(dp897
g44
I100
sg52
S''
sg41
S'32'
p898
sg43
g896
sg54
F0
ssS'10'
p899
(dp900
g44
I100
sg52
S''
sg41
S'32'
p901
sg43
g899
sg54
F0
ssS'13'
p902
(dp903
g44
I100
sg52
S''
sg41
S'32'
p904
sg43
g902
sg54
F0
ssS'12'
p905
(dp906
g44
I100
sg52
S''
sg41
S'32'
p907
sg43
g905
sg54
F0
ssS'15'
p908
(dp909
g44
I100
sg52
S''
sg41
S'8'
sg43
g908
sg54
F0
ssS'14'
p910
(dp911
g44
I100
sg52
S''
sg41
S'5'
sg43
g910
sg54
F0
ssS'16'
p912
(dp913
g44
I100
sg52
S''
sg41
S'8'
sg43
g912
sg54
F0
ssS'1'
(dp914
g44
I100
sg52
S''
sg41
S'11'
p915
sg43
S'1'
sg54
F0
ssS'3'
(dp916
g44
I100
sg52
S''
sg41
S'2'
sg43
S'3'
sg54
F0
ssS'2'
(dp917
g44
I100
sg52
S''
sg41
S'11'
p918
sg43
S'2'
sg54
F0
ssS'5'
(dp919
g44
I100
sg52
S''
sg41
S'2'
sg43
S'5'
sg54
F0
ssS'4'
(dp920
g44
I100
sg52
S''
sg41
S'2'
sg43
S'4'
sg54
F0
ssS'7'
(dp921
g44
I100
sg52
S''
sg41
S'26'
p922
sg43
S'7'
sg54
F0
ssS'6'
(dp923
g44
I100
sg52
S''
sg41
S'26'
p924
sg43
S'6'
sg54
F0
ssS'9'
(dp925
g44
I100
sg52
S''
sg41
S'32'
p926
sg43
S'9'
sg54
F0
ssS'8'
(dp927
g44
I100
sg52
S''
sg41
S'32'
p928
sg43
S'8'
sg54
F0
sssg80
I0
sg81
F48
sg82
S'port'
p929
sg17
F45
sg83
I400
sg84
I0
sg85
I200
sg86
I16
ssS'fore'
p930
(dp931
g11
I0
sg25
I0
sg26
I2800
sg27
I1800
sg28
g823
sg29
I0
sg30
(dp932
sg16
I0
sg45
I0
sg46
F14400
sg47
I1800
sg48
(dp933
S'11'
p934
(dp935
g44
I100
sg52
S''
sg41
S'32'
p936
sg43
g934
sg54
F0
ssS'10'
p937
(dp938
g44
I100
sg52
S''
sg41
S'32'
p939
sg43
g937
sg54
F0
ssS'13'
p940
(dp941
g44
I100
sg52
S''
sg41
S'5'
sg43
g940
sg54
F0
ssS'12'
p942
(dp943
g44
I100
sg52
S''
sg41
S'32'
p944
sg43
g942
sg54
F0
ssS'15'
p945
(dp946
g44
I100
sg52
S''
sg41
S'8'
sg43
g945
sg54
F0
ssS'14'
p947
(dp948
g44
I100
sg52
S''
sg41
S'8'
sg43
g947
sg54
F0
ssS'16'
p949
(dp950
g44
I100
sg52
S''
sg41
S'8'
sg43
g949
sg54
F0
ssS'1'
(dp951
g44
I100
sg52
S''
sg41
S'11'
p952
sg43
S'1'
sg54
F0
ssS'3'
(dp953
g44
I100
sg52
S''
sg41
S'11'
p954
sg43
S'3'
sg54
F0
ssS'2'
(dp955
g44
I100
sg52
S''
sg41
S'11'
p956
sg43
S'2'
sg54
F0
ssS'5'
(dp957
g44
I100
sg52
S''
sg41
S'2'
sg43
S'5'
sg54
F0
ssS'4'
(dp958
g44
I100
sg52
S''
sg41
S'11'
p959
sg43
S'4'
sg54
F0
ssS'7'
(dp960
g44
I100
sg52
S''
sg41
S'2'
sg43
S'7'
sg54
F0
ssS'6'
(dp961
g44
I100
sg52
S''
sg41
S'2'
sg43
S'6'
sg54
F0
ssS'9'
(dp962
g44
I100
sg52
S''
sg41
S'2'
sg43
S'9'
sg54
F0
ssS'8'
(dp963
g44
I100
sg52
S''
sg41
S'2'
sg43
S'8'
sg54
F0
sssg80
I0
sg81
F80
sg82
S'fore'
p964
sg17
F45
sg83
I0
sg84
I0
sg85
I300
sg86
I16
sssg184
F100
sg185
(lp965
g187
ag188
ag189
ag190
ag191
ag192
ag193
ag194
asg43
g472
sg195
(lp966
g197
ag198
ag199
ag200
ag201
ag202
asg203
I0
sg84
I0
sg204
F0
sg205
F1.6799999999999999
sg38
F500
sg81
F128
sg206
S'421'
p967
sg208
S'5'
sg209
I-26
sg210
I-7
sg211
g819
sg212
(lp968
I0
aI0
aI0
aI0
asg214
I0
sg215
S'DST17-HMS KENNET-421'
p969
sg26
I4200
sg36
F0
sg217
S'17'
p970
sg219
F36
sg46
F76000
sg220
I1
sg221
F-92.666666666666657
sg222
F-73.666666666666657
sg80
I0
ssg473
(dp971
g11
I0
sg12
(lp972
g819
asg15
S''
sg16
I0
sg17
F56.840000000000003
sg18
F4000
sg19
g20
sg21
(dp973
g821
(dp974
g11
I0
sg25
I10
sg26
I0
sg27
I600
sg28
g823
sg29
I0
sg30
(dp975
S'1'
(dp976
g33
S''
sg34
I0
sg35
I0
sg36
F270
sg37
F2.7000000000000002
sg38
F600
sg39
I800
sg40
I1
sg41
S'7'
sg43
S'1'
sg44
I800
ssS'2'
(dp977
g33
S''
sg34
I1
sg35
I0
sg36
F270
sg37
F0.27000000000000002
sg38
F150
sg39
I400
sg40
I1
sg41
g827
sg43
S'2'
sg44
I400
sssg16
I0
sg45
I0
sg46
F15600
sg47
I600
sg48
(dp978
g829
(dp979
g44
I100
sg52
S'1'
sg41
g831
sg43
g829
sg54
F0
ssg832
(dp980
g44
I100
sg52
S'1'
sg41
g831
sg43
g832
sg54
F0
ssg834
(dp981
g44
I100
sg52
S'2'
sg41
g831
sg43
g834
sg54
F0
ssg836
(dp982
g44
I100
sg52
S'1'
sg41
g831
sg43
g836
sg54
F0
ssg838
(dp983
g44
I100
sg52
S'2'
sg41
g831
sg43
g838
sg54
F0
ssg840
(dp984
g44
I100
sg52
S'2'
sg41
g831
sg43
g840
sg54
F0
ssg842
(dp985
g44
I100
sg52
S'2'
sg41
g831
sg43
g842
sg54
F0
ssS'1'
(dp986
g44
I100
sg52
S''
sg41
g845
sg43
S'1'
sg54
F0
ssS'3'
(dp987
g44
I100
sg52
S''
sg41
S'5'
sg43
S'3'
sg54
F0
ssS'2'
(dp988
g44
I100
sg52
S''
sg41
g848
sg43
S'2'
sg54
F0
ssS'5'
(dp989
g44
I100
sg52
S'1'
sg41
g831
sg43
S'5'
sg54
F0
ssS'4'
(dp990
g44
I100
sg52
S''
sg41
g851
sg43
S'4'
sg54
I98
ssS'7'
(dp991
g44
I100
sg52
S'1'
sg41
g831
sg43
S'7'
sg54
F0
ssS'6'
(dp992
g44
I100
sg52
S'1'
sg41
g831
sg43
S'6'
sg54
F0
ssS'9'
(dp993
g44
I100
sg52
S'1'
sg41
g831
sg43
S'9'
sg54
F0
ssS'8'
(dp994
g44
I100
sg52
S'1'
sg41
g831
sg43
S'8'
sg54
F0
sssg80
I0
sg81
F0
sg82
g856
sg17
F45
sg83
I0
sg84
I0
sg85
I0
sg86
I16
ssg857
(dp995
g11
I0
sg25
I20
sg26
I0
sg27
I600
sg28
g823
sg29
I0
sg30
(dp996
S'1'
(dp997
g33
S''
sg34
I0
sg35
I0
sg36
F270
sg37
F2.3999999999999999
sg38
F600
sg39
I800
sg40
I1
sg41
S'7'
sg43
S'1'
sg44
I800
ssS'2'
(dp998
g33
S''
sg34
I1
sg35
I0
sg36
F90
sg37
F0.23999999999999999
sg38
F150
sg39
I400
sg40
I1
sg41
g862
sg43
S'2'
sg44
I400
sssg16
I0
sg45
I0
sg46
F15600
sg47
I600
sg48
(dp999
g864
(dp1000
g44
I100
sg52
S'1'
sg41
g831
sg43
g864
sg54
F0
ssg866
(dp1001
g44
I100
sg52
S'1'
sg41
g831
sg43
g866
sg54
F0
ssg868
(dp1002
g44
I100
sg52
S'2'
sg41
g831
sg43
g868
sg54
F0
ssg870
(dp1003
g44
I100
sg52
S'1'
sg41
g831
sg43
g870
sg54
F0
ssg872
(dp1004
g44
I100
sg52
S'2'
sg41
g831
sg43
g872
sg54
F0
ssg874
(dp1005
g44
I100
sg52
S'2'
sg41
g831
sg43
g874
sg54
F0
ssg876
(dp1006
g44
I100
sg52
S'2'
sg41
g831
sg43
g876
sg54
F0
ssS'1'
(dp1007
g44
I100
sg52
S''
sg41
g879
sg43
S'1'
sg54
F0
ssS'3'
(dp1008
g44
I100
sg52
S''
sg41
g881
sg43
S'3'
sg54
F0
ssS'2'
(dp1009
g44
I100
sg52
S''
sg41
g883
sg43
S'2'
sg54
F0
ssS'5'
(dp1010
g44
I100
sg52
S'1'
sg41
g831
sg43
S'5'
sg54
F0
ssS'4'
(dp1011
g44
I100
sg52
S''
sg41
g886
sg43
S'4'
sg54
I100
ssS'7'
(dp1012
g44
I100
sg52
S'1'
sg41
g831
sg43
S'7'
sg54
F0
ssS'6'
(dp1013
g44
I100
sg52
S'1'
sg41
g831
sg43
S'6'
sg54
F0
ssS'9'
(dp1014
g44
I100
sg52
S'1'
sg41
g831
sg43
S'9'
sg54
F0
ssS'8'
(dp1015
g44
I100
sg52
S'1'
sg41
g831
sg43
S'8'
sg54
F0
sssg80
I0
sg81
F0
sg82
g891
sg17
F0
sg83
I0
sg84
I0
sg85
I0
sg86
I16
ssg892
(dp1016
g11
I0
sg25
I0
sg26
I1400
sg27
I3600
sg28
g823
sg29
I4
sg30
(dp1017
sg16
I0
sg45
I400
sg46
F14400
sg47
I3600
sg48
(dp1018
g896
(dp1019
g44
I100
sg52
S''
sg41
g898
sg43
g896
sg54
F0
ssg899
(dp1020
g44
I100
sg52
S''
sg41
g901
sg43
g899
sg54
F0
ssg902
(dp1021
g44
I100
sg52
S''
sg41
g904
sg43
g902
sg54
F0
ssg905
(dp1022
g44
I100
sg52
S''
sg41
g907
sg43
g905
sg54
F0
ssg908
(dp1023
g44
I100
sg52
S''
sg41
S'8'
sg43
g908
sg54
F0
ssg910
(dp1024
g44
I100
sg52
S''
sg41
S'5'
sg43
g910
sg54
F0
ssg912
(dp1025
g44
I100
sg52
S''
sg41
S'8'
sg43
g912
sg54
F0
ssS'1'
(dp1026
g44
I100
sg52
S''
sg41
g915
sg43
S'1'
sg54
F0
ssS'3'
(dp1027
g44
I100
sg52
S''
sg41
S'2'
sg43
S'3'
sg54
F0
ssS'2'
(dp1028
g44
I100
sg52
S''
sg41
g918
sg43
S'2'
sg54
F0
ssS'5'
(dp1029
g44
I100
sg52
S''
sg41
S'2'
sg43
S'5'
sg54
F0
ssS'4'
(dp1030
g44
I100
sg52
S''
sg41
S'2'
sg43
S'4'
sg54
F0
ssS'7'
(dp1031
g44
I100
sg52
S''
sg41
g922
sg43
S'7'
sg54
F0
ssS'6'
(dp1032
g44
I100
sg52
S''
sg41
g924
sg43
S'6'
sg54
F0
ssS'9'
(dp1033
g44
I100
sg52
S''
sg41
g926
sg43
S'9'
sg54
F0
ssS'8'
(dp1034
g44
I100
sg52
S''
sg41
g928
sg43
S'8'
sg54
F0
sssg80
I0
sg81
F48
sg82
g929
sg17
F45
sg83
I400
sg84
I0
sg85
I200
sg86
I16
ssg930
(dp1035
g11
I0
sg25
I0
sg26
I2800
sg27
I1800
sg28
g823
sg29
I0
sg30
(dp1036
sg16
I0
sg45
I0
sg46
F14400
sg47
I1800
sg48
(dp1037
g934
(dp1038
g44
I100
sg52
S''
sg41
g936
sg43
g934
sg54
F0
ssg937
(dp1039
g44
I100
sg52
S''
sg41
g939
sg43
g937
sg54
F0
ssg940
(dp1040
g44
I100
sg52
S''
sg41
S'5'
sg43
g940
sg54
F0
ssg942
(dp1041
g44
I100
sg52
S''
sg41
g944
sg43
g942
sg54
F0
ssg945
(dp1042
g44
I100
sg52
S''
sg41
S'8'
sg43
g945
sg54
F0
ssg947
(dp1043
g44
I100
sg52
S''
sg41
S'8'
sg43
g947
sg54
F0
ssg949
(dp1044
g44
I100
sg52
S''
sg41
S'8'
sg43
g949
sg54
F0
ssS'1'
(dp1045
g44
I100
sg52
S''
sg41
g952
sg43
S'1'
sg54
F0
ssS'3'
(dp1046
g44
I100
sg52
S''
sg41
g954
sg43
S'3'
sg54
F0
ssS'2'
(dp1047
g44
I100
sg52
S''
sg41
g956
sg43
S'2'
sg54
F0
ssS'5'
(dp1048
g44
I100
sg52
S''
sg41
S'2'
sg43
S'5'
sg54
F0
ssS'4'
(dp1049
g44
I100
sg52
S''
sg41
g959
sg43
S'4'
sg54
F0
ssS'7'
(dp1050
g44
I100
sg52
S''
sg41
S'2'
sg43
S'7'
sg54
F0
ssS'6'
(dp1051
g44
I100
sg52
S''
sg41
S'2'
sg43
S'6'
sg54
F0
ssS'9'
(dp1052
g44
I100
sg52
S''
sg41
S'2'
sg43
S'9'
sg54
F0
ssS'8'
(dp1053
g44
I100
sg52
S''
sg41
S'2'
sg43
S'8'
sg54
F0
sssg80
I0
sg81
F80
sg82
g964
sg17
F45
sg83
I0
sg84
I0
sg85
I300
sg86
I16
sssg184
F100
sg185
(lp1054
g187
ag188
ag189
ag190
ag191
ag192
ag193
ag194
asg43
g473
sg195
(lp1055
g197
ag198
ag199
ag200
ag201
ag202
asg203
I0
sg84
I0
sg204
F0
sg205
F1.6799999999999999
sg38
F500
sg81
F128
sg206
S'420'
p1056
sg208
S'5'
sg209
I-16
sg210
I3
sg211
g819
sg212
(lp1057
I0
aI0
aI0
aI0
asg214
I0
sg215
S'DST17-HMS KENNET-420'
p1058
sg26
I4200
sg36
F0
sg217
g970
sg219
F36
sg46
F76000
sg220
I1
sg221
F-82.666666666666657
sg222
F-63.666666666666657
sg80
I0
ssg474
(dp1059
g11
I0
sg12
(lp1060
g819
asg15
S''
sg16
I0
sg17
F56.840000000000003
sg18
F4000
sg19
g20
sg21
(dp1061
g821
(dp1062
g11
I0
sg25
I10
sg26
I0
sg27
I600
sg28
g823
sg29
I0
sg30
(dp1063
S'1'
(dp1064
g33
S''
sg34
I0
sg35
I0
sg36
F270
sg37
F2.7000000000000002
sg38
F600
sg39
I800
sg40
I1
sg41
S'7'
sg43
S'1'
sg44
I800
ssS'2'
(dp1065
g33
S''
sg34
I1
sg35
I0
sg36
F270
sg37
F0.27000000000000002
sg38
F150
sg39
I400
sg40
I1
sg41
g827
sg43
S'2'
sg44
I400
sssg16
I0
sg45
I0
sg46
F15600
sg47
I600
sg48
(dp1066
g829
(dp1067
g44
I100
sg52
S'1'
sg41
g831
sg43
g829
sg54
F0
ssg832
(dp1068
g44
I100
sg52
S'1'
sg41
g831
sg43
g832
sg54
F0
ssg834
(dp1069
g44
I100
sg52
S'2'
sg41
g831
sg43
g834
sg54
F0
ssg836
(dp1070
g44
I100
sg52
S'1'
sg41
g831
sg43
g836
sg54
F0
ssg838
(dp1071
g44
I100
sg52
S'2'
sg41
g831
sg43
g838
sg54
F0
ssg840
(dp1072
g44
I100
sg52
S'2'
sg41
g831
sg43
g840
sg54
F0
ssg842
(dp1073
g44
I100
sg52
S'2'
sg41
g831
sg43
g842
sg54
F0
ssS'1'
(dp1074
g44
I100
sg52
S''
sg41
g845
sg43
S'1'
sg54
F0
ssS'3'
(dp1075
g44
I100
sg52
S''
sg41
S'5'
sg43
S'3'
sg54
F0
ssS'2'
(dp1076
g44
I100
sg52
S''
sg41
g848
sg43
S'2'
sg54
F0
ssS'5'
(dp1077
g44
I100
sg52
S'1'
sg41
g831
sg43
S'5'
sg54
F0
ssS'4'
(dp1078
g44
I100
sg52
S''
sg41
g851
sg43
S'4'
sg54
I98
ssS'7'
(dp1079
g44
I100
sg52
S'1'
sg41
g831
sg43
S'7'
sg54
F0
ssS'6'
(dp1080
g44
I100
sg52
S'1'
sg41
g831
sg43
S'6'
sg54
F0
ssS'9'
(dp1081
g44
I100
sg52
S'1'
sg41
g831
sg43
S'9'
sg54
F0
ssS'8'
(dp1082
g44
I100
sg52
S'1'
sg41
g831
sg43
S'8'
sg54
F0
sssg80
I0
sg81
F0
sg82
g856
sg17
F45
sg83
I0
sg84
I0
sg85
I0
sg86
I16
ssg857
(dp1083
g11
I0
sg25
I20
sg26
I0
sg27
I600
sg28
g823
sg29
I0
sg30
(dp1084
S'1'
(dp1085
g33
S''
sg34
I0
sg35
I0
sg36
F270
sg37
F2.3999999999999999
sg38
F600
sg39
I800
sg40
I1
sg41
S'7'
sg43
S'1'
sg44
I800
ssS'2'
(dp1086
g33
S''
sg34
I1
sg35
I0
sg36
F90
sg37
F0.23999999999999999
sg38
F150
sg39
I400
sg40
I1
sg41
g862
sg43
S'2'
sg44
I400
sssg16
I0
sg45
I0
sg46
F15600
sg47
I600
sg48
(dp1087
g864
(dp1088
g44
I100
sg52
S'1'
sg41
g831
sg43
g864
sg54
F0
ssg866
(dp1089
g44
I100
sg52
S'1'
sg41
g831
sg43
g866
sg54
F0
ssg868
(dp1090
g44
I100
sg52
S'2'
sg41
g831
sg43
g868
sg54
F0
ssg870
(dp1091
g44
I100
sg52
S'1'
sg41
g831
sg43
g870
sg54
F0
ssg872
(dp1092
g44
I100
sg52
S'2'
sg41
g831
sg43
g872
sg54
F0
ssg874
(dp1093
g44
I100
sg52
S'2'
sg41
g831
sg43
g874
sg54
F0
ssg876
(dp1094
g44
I100
sg52
S'2'
sg41
g831
sg43
g876
sg54
F0
ssS'1'
(dp1095
g44
I100
sg52
S''
sg41
g879
sg43
S'1'
sg54
F0
ssS'3'
(dp1096
g44
I100
sg52
S''
sg41
g881
sg43
S'3'
sg54
F0
ssS'2'
(dp1097
g44
I100
sg52
S''
sg41
g883
sg43
S'2'
sg54
F0
ssS'5'
(dp1098
g44
I100
sg52
S'1'
sg41
g831
sg43
S'5'
sg54
F0
ssS'4'
(dp1099
g44
I100
sg52
S''
sg41
g886
sg43
S'4'
sg54
I100
ssS'7'
(dp1100
g44
I100
sg52
S'1'
sg41
g831
sg43
S'7'
sg54
F0
ssS'6'
(dp1101
g44
I100
sg52
S'1'
sg41
g831
sg43
S'6'
sg54
F0
ssS'9'
(dp1102
g44
I100
sg52
S'1'
sg41
g831
sg43
S'9'
sg54
F0
ssS'8'
(dp1103
g44
I100
sg52
S'1'
sg41
g831
sg43
S'8'
sg54
F0
sssg80
I0
sg81
F0
sg82
g891
sg17
F0
sg83
I0
sg84
I0
sg85
I0
sg86
I16
ssg892
(dp1104
g11
I0
sg25
I0
sg26
I1400
sg27
I3600
sg28
g823
sg29
I4
sg30
(dp1105
sg16
I0
sg45
I400
sg46
F14400
sg47
I3600
sg48
(dp1106
g896
(dp1107
g44
I100
sg52
S''
sg41
g898
sg43
g896
sg54
F0
ssg899
(dp1108
g44
I100
sg52
S''
sg41
g901
sg43
g899
sg54
F0
ssg902
(dp1109
g44
I100
sg52
S''
sg41
g904
sg43
g902
sg54
F0
ssg905
(dp1110
g44
I100
sg52
S''
sg41
g907
sg43
g905
sg54
F0
ssg908
(dp1111
g44
I100
sg52
S''
sg41
S'8'
sg43
g908
sg54
F0
ssg910
(dp1112
g44
I100
sg52
S''
sg41
S'5'
sg43
g910
sg54
F0
ssg912
(dp1113
g44
I100
sg52
S''
sg41
S'8'
sg43
g912
sg54
F0
ssS'1'
(dp1114
g44
I100
sg52
S''
sg41
g915
sg43
S'1'
sg54
F0
ssS'3'
(dp1115
g44
I100
sg52
S''
sg41
S'2'
sg43
S'3'
sg54
F0
ssS'2'
(dp1116
g44
I100
sg52
S''
sg41
g918
sg43
S'2'
sg54
F0
ssS'5'
(dp1117
g44
I100
sg52
S''
sg41
S'2'
sg43
S'5'
sg54
F0
ssS'4'
(dp1118
g44
I100
sg52
S''
sg41
S'2'
sg43
S'4'
sg54
F0
ssS'7'
(dp1119
g44
I100
sg52
S''
sg41
g922
sg43
S'7'
sg54
F0
ssS'6'
(dp1120
g44
I100
sg52
S''
sg41
g924
sg43
S'6'
sg54
F0
ssS'9'
(dp1121
g44
I100
sg52
S''
sg41
g926
sg43
S'9'
sg54
F0
ssS'8'
(dp1122
g44
I100
sg52
S''
sg41
g928
sg43
S'8'
sg54
F0
sssg80
I0
sg81
F48
sg82
g929
sg17
F45
sg83
I400
sg84
I0
sg85
I200
sg86
I16
ssg930
(dp1123
g11
I0
sg25
I0
sg26
I2800
sg27
I1800
sg28
g823
sg29
I0
sg30
(dp1124
sg16
I0
sg45
I0
sg46
F14400
sg47
I1800
sg48
(dp1125
g934
(dp1126
g44
I100
sg52
S''
sg41
g936
sg43
g934
sg54
F0
ssg937
(dp1127
g44
I100
sg52
S''
sg41
g939
sg43
g937
sg54
F0
ssg940
(dp1128
g44
I100
sg52
S''
sg41
S'5'
sg43
g940
sg54
F0
ssg942
(dp1129
g44
I100
sg52
S''
sg41
g944
sg43
g942
sg54
F0
ssg945
(dp1130
g44
I100
sg52
S''
sg41
S'8'
sg43
g945
sg54
F0
ssg947
(dp1131
g44
I100
sg52
S''
sg41
S'8'
sg43
g947
sg54
F0
ssg949
(dp1132
g44
I100
sg52
S''
sg41
S'8'
sg43
g949
sg54
F0
ssS'1'
(dp1133
g44
I100
sg52
S''
sg41
g952
sg43
S'1'
sg54
F0
ssS'3'
(dp1134
g44
I100
sg52
S''
sg41
g954
sg43
S'3'
sg54
F0
ssS'2'
(dp1135
g44
I100
sg52
S''
sg41
g956
sg43
S'2'
sg54
F0
ssS'5'
(dp1136
g44
I100
sg52
S''
sg41
S'2'
sg43
S'5'
sg54
F0
ssS'4'
(dp1137
g44
I100
sg52
S''
sg41
g959
sg43
S'4'
sg54
F0
ssS'7'
(dp1138
g44
I100
sg52
S''
sg41
S'2'
sg43
S'7'
sg54
F0
ssS'6'
(dp1139
g44
I100
sg52
S''
sg41
S'2'
sg43
S'6'
sg54
F0
ssS'9'
(dp1140
g44
I100
sg52
S''
sg41
S'2'
sg43
S'9'
sg54
F0
ssS'8'
(dp1141
g44
I100
sg52
S''
sg41
S'2'
sg43
S'8'
sg54
F0
sssg80
I0
sg81
F80
sg82
g964
sg17
F45
sg83
I0
sg84
I0
sg85
I300
sg86
I16
sssg184
F100
sg185
(lp1142
g187
ag188
ag189
ag190
ag191
ag192
ag193
ag194
asg43
g474
sg195
(lp1143
g197
ag198
ag199
ag200
ag201
ag202
asg203
I0
sg84
I0
sg204
F0
sg205
F1.6799999999999999
sg38
F500
sg81
F128
sg206
S'422'
p1144
sg208
S'5'
sg209
I-14
sg210
I-21
sg211
g819
sg212
(lp1145
I0
aI0
aI0
aI0
asg214
I0
sg215
S'DST17-HMS KENNET-422'
p1146
sg26
I4200
sg36
F0
sg217
g970
sg219
F36
sg46
F76000
sg220
I1
sg221
F-80.666666666666657
sg222
F-87.666666666666657
sg80
I0
ssg475
(dp1147
g11
I0
sg12
(lp1148
g819
asg15
S''
sg16
I0
sg17
F18.09
sg18
F4000
sg19
g20
sg21
(dp1149
g23
(dp1150
g11
I0
sg25
I0
sg26
I2800
sg27
I0
sg28
S''
sg29
I0
sg30
(dp1151
S'1'
(dp1152
g33
S'4'
sg34
I0
sg35
I0
sg36
F180
sg37
F7
sg38
I0
sg39
I1200
sg40
I0
sg41
S'48'
p1153
sg43
S'1'
sg44
I1200
sssg16
I0
sg45
I0
sg46
F15600
sg47
I0
sg48
(dp1154
S'11'
p1155
(dp1156
g44
I100
sg52
S'1'
sg41
g831
sg43
g1155
sg54
F0
ssS'10'
p1157
(dp1158
g44
I100
sg52
S'1'
sg41
g831
sg43
g1157
sg54
F0
ssS'13'
p1159
(dp1160
g44
I100
sg52
S'1'
sg41
g831
sg43
g1159
sg54
F0
ssS'12'
p1161
(dp1162
g44
I100
sg52
S'1'
sg41
g831
sg43
g1161
sg54
F0
ssS'15'
p1163
(dp1164
g44
I100
sg52
S'1'
sg41
g831
sg43
g1163
sg54
F0
ssS'14'
p1165
(dp1166
g44
I100
sg52
S'1'
sg41
g831
sg43
g1165
sg54
F0
ssS'16'
p1167
(dp1168
g44
I100
sg52
S'1'
sg41
g831
sg43
g1167
sg54
F0
ssS'1'
(dp1169
g44
I100
sg52
S''
sg41
S'11'
p1170
sg43
S'1'
sg54
F0
ssS'3'
(dp1171
g44
I100
sg52
S''
sg41
S'11'
p1172
sg43
S'3'
sg54
F0
ssS'2'
(dp1173
g44
I100
sg52
S''
sg41
S'11'
p1174
sg43
S'2'
sg54
F0
ssS'5'
(dp1175
g44
I100
sg52
S'1'
sg41
g831
sg43
S'5'
sg54
F0
ssS'4'
(dp1176
g44
I100
sg52
S''
sg41
S'11'
p1177
sg43
S'4'
sg54
F0
ssS'7'
(dp1178
g44
I100
sg52
S'1'
sg41
g831
sg43
S'7'
sg54
F0
ssS'6'
(dp1179
g44
I100
sg52
S'1'
sg41
g831
sg43
S'6'
sg54
F0
ssS'9'
(dp1180
g44
I100
sg52
S'1'
sg41
g831
sg43
S'9'
sg54
F0
ssS'8'
(dp1181
g44
I100
sg52
S'1'
sg41
g831
sg43
S'8'
sg54
F0
sssg80
I0
sg81
F0
sg82
S'aft'
p1182
sg17
F0
sg83
I0
sg84
I0
sg85
I0
sg86
I16
ssg87
(dp1183
g11
I0
sg25
I0
sg26
I2800
sg27
I0
sg28
S''
sg29
I0
sg30
(dp1184
S'1'
(dp1185
g33
S'4'
sg34
I0
sg35
I0
sg36
F180
sg37
F7
sg38
I0
sg39
I1200
sg40
I0
sg41
S'48'
p1186
sg43
S'1'
sg44
I1200
sssg16
I0
sg45
I0
sg46
F15600
sg47
I0
sg48
(dp1187
S'11'
p1188
(dp1189
g44
I100
sg52
S'1'
sg41
g831
sg43
g1188
sg54
F0
ssS'10'
p1190
(dp1191
g44
I100
sg52
S'1'
sg41
g831
sg43
g1190
sg54
F0
ssS'13'
p1192
(dp1193
g44
I100
sg52
S'1'
sg41
g831
sg43
g1192
sg54
F0
ssS'12'
p1194
(dp1195
g44
I100
sg52
S'1'
sg41
g831
sg43
g1194
sg54
F0
ssS'15'
p1196
(dp1197
g44
I100
sg52
S'1'
sg41
g831
sg43
g1196
sg54
F0
ssS'14'
p1198
(dp1199
g44
I100
sg52
S'1'
sg41
g831
sg43
g1198
sg54
F0
ssS'16'
p1200
(dp1201
g44
I100
sg52
S'1'
sg41
g831
sg43
g1200
sg54
F0
ssS'1'
(dp1202
g44
I100
sg52
S''
sg41
S'11'
p1203
sg43
S'1'
sg54
F0
ssS'3'
(dp1204
g44
I100
sg52
S''
sg41
S'11'
p1205
sg43
S'3'
sg54
F0
ssS'2'
(dp1206
g44
I100
sg52
S''
sg41
S'11'
p1207
sg43
S'2'
sg54
F0
ssS'5'
(dp1208
g44
I100
sg52
S'1'
sg41
g831
sg43
S'5'
sg54
F0
ssS'4'
(dp1209
g44
I100
sg52
S''
sg41
S'11'
p1210
sg43
S'4'
sg54
F0
ssS'7'
(dp1211
g44
I100
sg52
S'1'
sg41
g831
sg43
S'7'
sg54
F0
ssS'6'
(dp1212
g44
I100
sg52
S'1'
sg41
g831
sg43
S'6'
sg54
F0
ssS'9'
(dp1213
g44
I100
sg52
S'1'
sg41
g831
sg43
S'9'
sg54
F0
ssS'8'
(dp1214
g44
I100
sg52
S'1'
sg41
g831
sg43
S'8'
sg54
F0
sssg80
I0
sg81
F0
sg82
S'star'
p1215
sg17
F0
sg83
I0
sg84
I0
sg85
I0
sg86
I16
ssg120
(dp1216
g11
I0
sg25
I0
sg26
I2800
sg27
I0
sg28
S''
sg29
I0
sg30
(dp1217
S'1'
(dp1218
g33
S'4'
sg34
I0
sg35
I0
sg36
F180
sg37
F7
sg38
I0
sg39
I1200
sg40
I0
sg41
S'48'
p1219
sg43
S'1'
sg44
I1200
sssg16
I0
sg45
I0
sg46
F15600
sg47
I0
sg48
(dp1220
S'11'
p1221
(dp1222
g44
I100
sg52
S'1'
sg41
g831
sg43
g1221
sg54
F0
ssS'10'
p1223
(dp1224
g44
I100
sg52
S'1'
sg41
g831
sg43
g1223
sg54
F0
ssS'13'
p1225
(dp1226
g44
I100
sg52
S'1'
sg41
g831
sg43
g1225
sg54
F0
ssS'12'
p1227
(dp1228
g44
I100
sg52
S'1'
sg41
g831
sg43
g1227
sg54
F0
ssS'15'
p1229
(dp1230
g44
I100
sg52
S'1'
sg41
g831
sg43
g1229
sg54
F0
ssS'14'
p1231
(dp1232
g44
I100
sg52
S'1'
sg41
g831
sg43
g1231
sg54
F0
ssS'16'
p1233
(dp1234
g44
I100
sg52
S'1'
sg41
g831
sg43
g1233
sg54
F0
ssS'1'
(dp1235
g44
I100
sg52
S''
sg41
S'11'
p1236
sg43
S'1'
sg54
F0
ssS'3'
(dp1237
g44
I100
sg52
S''
sg41
S'11'
p1238
sg43
S'3'
sg54
F0
ssS'2'
(dp1239
g44
I100
sg52
S''
sg41
S'11'
p1240
sg43
S'2'
sg54
F0
ssS'5'
(dp1241
g44
I100
sg52
S'1'
sg41
g831
sg43
S'5'
sg54
F0
ssS'4'
(dp1242
g44
I100
sg52
S''
sg41
S'11'
p1243
sg43
S'4'
sg54
F0
ssS'7'
(dp1244
g44
I100
sg52
S'1'
sg41
g831
sg43
S'7'
sg54
F0
ssS'6'
(dp1245
g44
I100
sg52
S'1'
sg41
g831
sg43
S'6'
sg54
F0
ssS'9'
(dp1246
g44
I100
sg52
S'1'
sg41
g831
sg43
S'9'
sg54
F0
ssS'8'
(dp1247
g44
I100
sg52
S'1'
sg41
g831
sg43
S'8'
sg54
F0
sssg80
I0
sg81
F0
sg82
S'port'
p1248
sg17
F0
sg83
I0
sg84
I0
sg85
I0
sg86
I16
ssg153
(dp1249
g11
I0
sg25
I0
sg26
I2100
sg27
I0
sg28
S''
sg29
I0
sg30
(dp1250
S'1'
(dp1251
g33
S''
sg34
I0
sg35
I0
sg36
F0
sg37
F0.29999999999999999
sg38
F150
sg39
I400
sg40
I1
sg41
S'8'
sg43
S'1'
sg44
I400
sssg16
I0
sg45
I0
sg46
F14800
sg47
I0
sg48
(dp1252
S'11'
p1253
(dp1254
g44
I100
sg52
S''
sg41
S'8'
sg43
g1253
sg54
F0
ssS'10'
p1255
(dp1256
g44
I100
sg52
S''
sg41
S'8'
sg43
g1255
sg54
F0
ssS'13'
p1257
(dp1258
g44
I100
sg52
S'1'
sg41
g831
sg43
g1257
sg54
F0
ssS'12'
p1259
(dp1260
g44
I100
sg52
S''
sg41
S'8'
sg43
g1259
sg54
F0
ssS'15'
p1261
(dp1262
g44
I100
sg52
S'1'
sg41
g831
sg43
g1261
sg54
F0
ssS'14'
p1263
(dp1264
g44
I100
sg52
S'1'
sg41
g831
sg43
g1263
sg54
F0
ssS'16'
p1265
(dp1266
g44
I100
sg52
S'1'
sg41
g831
sg43
g1265
sg54
F0
ssS'1'
(dp1267
g44
I100
sg52
S''
sg41
S'11'
p1268
sg43
S'1'
sg54
F0
ssS'3'
(dp1269
g44
I100
sg52
S''
sg41
S'11'
p1270
sg43
S'3'
sg54
F0
ssS'2'
(dp1271
g44
I100
sg52
S''
sg41
S'11'
p1272
sg43
S'2'
sg54
F0
ssS'5'
(dp1273
g44
I100
sg52
S''
sg41
S'2'
sg43
S'5'
sg54
F0
ssS'4'
(dp1274
g44
I100
sg52
S''
sg41
S'2'
sg43
S'4'
sg54
F0
ssS'7'
(dp1275
g44
I100
sg52
S''
sg41
S'5'
sg43
S'7'
sg54
F0
ssS'6'
(dp1276
g44
I100
sg52
S''
sg41
S'2'
sg43
S'6'
sg54
F0
ssS'9'
(dp1277
g44
I100
sg52
S''
sg41
S'8'
sg43
S'9'
sg54
F0
ssS'8'
(dp1278
g44
I100
sg52
S''
sg41
S'8'
sg43
S'8'
sg54
F0
sssg80
I0
sg81
F48
sg82
S'fore'
p1279
sg17
F45
sg83
I0
sg84
I0
sg85
I500
sg86
I16
sssg184
F100
sg185
(lp1280
g187
ag188
ag189
ag190
ag191
ag192
ag193
ag194
asg43
g475
sg195
(lp1281
g197
ag198
ag199
ag200
ag201
ag202
asg203
I0
sg84
I0
sg204
F0
sg205
F0.59999999999999998
sg38
F500
sg81
F48
sg206
S'419'
p1282
sg208
S'5'
sg209
I-20
sg210
I-22
sg211
g819
sg212
(lp1283
I0
aI0
aI0
aI0
asg214
I0
sg215
S'HCA16-HMS WONG-419'
p1284
sg26
I10500
sg36
F0
sg217
g218
sg219
I99999
sg46
F79600
sg220
I1
sg221
F-86.666666666666657
sg222
F-88.666666666666657
sg80
I0
sssS'captainsDict'
p1285
(dp1286
g480
(dp1287
g488
S'Pmarnand Belemats'
p1288
sS'rankID'
p1289
I0
sS'rank'
p1290
S'Rookie'
p1291
sS'experience'
p1292
F0
sS'myShipID'
p1293
g197
sg481
S'0'
sg396
g480
ssg274
(dp1294
g215
S'Sonett Dontev'
p1295
sS'rankID'
p1296
I0
sS'rank'
p1297
S'Rookie'
p1298
sS'experience'
p1299
F0
sS'myShipID'
p1300
g223
sg208
S'5'
sg43
g274
ssg320
(dp1301
g215
S'Ruiz Wkinght'
p1302
sg1296
I0
sg1297
g1298
sg1299
F0
sg1300
g279
sg208
S'5'
sg43
g320
ssg364
(dp1303
g215
S'Nolmern Monterr'
p1304
sg1296
I0
sg1297
g1298
sg1299
F0
sg1300
g323
sg208
S'5'
sg43
g364
ssg207
(dp1305
g215
S'Boyders Dlendersh'
p1306
sg1296
I1
sg1297
S'Cadet'
p1307
sg1299
F100
sg1300
g9
sg208
S'5'
sg43
g207
ssg561
(dp1308
g488
S'Arker Hillit'
p1309
sg1289
I0
sg1290
g1291
sg1292
F0
sg1293
g198
sg481
S'0'
sg396
g561
ssg625
(dp1310
g488
S'Ltonterya Sny'
p1311
sg1289
I0
sg1290
g1291
sg1292
F0
sg1293
g199
sg481
S'0'
sg396
g625
ssg688
(dp1312
g488
S'Eaver Ibsones'
p1313
sg1289
I0
sg1290
g1291
sg1292
F0
sg1293
g200
sg481
S'0'
sg396
g688
ssg751
(dp1314
g488
S'Utlester Ramilles'
p1315
sg1289
I0
sg1290
g1291
sg1292
F0
sg1293
g201
sg481
S'0'
sg396
g751
ssg814
(dp1316
g488
S'Jacks Pman'
p1317
sg1289
I0
sg1290
g1291
sg1292
F0
sg1293
g202
sg481
S'0'
sg396
g814
ssg967
(dp1318
g215
S'Ylo Pmard'
p1319
sg1296
I1
sg1297
g1307
sg1299
F172
sg1300
g472
sg208
S'5'
sg43
g967
ssg1056
(dp1320
g215
S'Ltonza Otter'
p1321
sg1296
I1
sg1297
g1307
sg1299
F124
sg1300
g473
sg208
S'5'
sg43
g1056
ssg1144
(dp1322
g215
S'Rrille Mccoleyes'
p1323
sg1296
I1
sg1297
g1307
sg1299
F196
sg1300
g474
sg208
S'5'
sg43
g1144
ssg1282
(dp1324
g215
S'Esto Pmar'
p1325
sg1296
I1
sg1297
g1307
sg1299
F172
sg1300
g475
sg208
S'5'
sg43
g1282
sssS'cities'
p1326
I10
sS'defaultAttributes'
p1327
(g43
S'systemID'
p1328
g208
S'systemName'
p1329
g1326
S'x'
S'y'
S'round'
p1330
S'seed'
p1331
tp1332
sS'regimentsExposed'
p1333
(dp1334
S'5-26'
p1335
I30
ssS'weapondata'
p1336
(dp1337
sg1330
I8
sS'componentdata'
p1338
(dp1339
sS'empiresDict'
p1340
(dp1341
S'0'
(dp1342
S'imageFile'
p1343
S''
sg215
S'Neutral'
p1344
sS'droneDesigns'
p1345
(dp1346
S'1'
(dp1347
g368
I0
sS'costEC'
p1348
F52
sS'costAL'
p1349
F68
sS'obsolete'
p1350
I0
sg375
I0
sg413
F100
sS'totalAMSPower'
p1351
F0
sg21
(dp1352
g253
(dp1353
g368
I0
sg381
I0
sg382
I0
sg383
I0
sg384
S''
sg385
I2
sg30
(dp1354
S'1'
(dp1355
g418
S''
sg419
I0
sg420
F0
sg421
F0
sg422
F2
sg423
F0
sg424
I200
sg425
I1
sg395
S'1'
sg396
S'1'
sg393
I200
sssg375
I0
sg387
I200
sg388
F8000
sg389
I0
sg48
(dp1356
S'1'
(dp1357
g393
I50
sg394
S''
sg395
S'7'
sg396
S'1'
sg397
F0
ssS'3'
(dp1358
g393
I50
sg394
S''
sg395
g236
sg396
S'3'
sg397
F0
ssS'2'
(dp1359
g393
I50
sg394
S''
sg395
S'7'
sg396
S'2'
sg397
F0
ssS'5'
(dp1360
g393
I50
sg394
S'1'
sg395
g260
sg396
S'5'
sg397
F0
ssS'4'
(dp1361
g393
I50
sg394
S''
sg395
g236
sg396
S'4'
sg397
F0
ssS'7'
(dp1362
g393
I50
sg394
S'1'
sg395
g260
sg396
S'7'
sg397
F0
ssS'6'
(dp1363
g393
I50
sg394
S'1'
sg395
g260
sg396
S'6'
sg397
F0
ssS'8'
(dp1364
g393
I50
sg394
S'1'
sg395
g260
sg396
S'8'
sg397
F0
sssg408
I0
sg409
F0
sg410
g253
sg376
F0
sg411
I0
sg412
I0
sg413
I100
sg414
I8
sssS'costIA'
p1365
F22
sS'amsFireRate'
p1366
F0
sS'costCR'
p1367
F1280
sS'totalWeapPower'
p1368
F200
sg396
S'1'
sS'abr'
p1369
S'LND-LPG0'
p1370
sS'techReq'
p1371
S''
sg412
I0
sS'description'
p1372
S''
sS'weapFireRate'
p1373
F2
sg478
F5
sS'shipHullID'
p1374
S'101'
p1375
sg409
F0
sg376
F60
sg488
S'LND1-Neutral-LND'
p1376
sg382
F0
sg388
F9000
sg408
I0
ssS'3'
(dp1377
g368
I0
sg1348
F198
sg1349
F228
sg1350
I0
sg375
I0
sg413
F800
sg1351
F0
sg21
(dp1378
g253
(dp1379
g368
I0
sg381
I0
sg382
I0
sg383
I0
sg384
S''
sg385
I12
sg30
(dp1380
S'1'
(dp1381
g418
S''
sg419
I0
sg420
F0
sg421
F0
sg422
F2
sg423
F0
sg424
I200
sg425
I1
sg395
S'1'
sg396
S'1'
sg393
I200
sssg375
I0
sg387
I1200
sg388
F10400
sg389
I0
sg48
(dp1382
S'11'
p1383
(dp1384
g393
I50
sg394
S'1'
sg395
g260
sg396
g1383
sg397
F0
ssS'10'
p1385
(dp1386
g393
I50
sg394
S'1'
sg395
g260
sg396
g1385
sg397
F0
ssS'12'
p1387
(dp1388
g393
I50
sg394
S'1'
sg395
g260
sg396
g1387
sg397
F0
ssS'1'
(dp1389
g393
I200
sg394
S''
sg395
S'9'
sg396
S'1'
sg397
F0
ssS'3'
(dp1390
g393
I200
sg394
S''
sg395
S'9'
sg396
S'3'
sg397
F0
ssS'2'
(dp1391
g393
I200
sg394
S''
sg395
S'9'
sg396
S'2'
sg397
F0
ssS'5'
(dp1392
g393
I200
sg394
S''
sg395
S'27'
p1393
sg396
S'5'
sg397
F0
ssS'4'
(dp1394
g393
I200
sg394
S''
sg395
S'9'
sg396
S'4'
sg397
F0
ssS'7'
(dp1395
g393
I200
sg394
S''
sg395
g1393
sg396
S'7'
sg397
F0
ssS'6'
(dp1396
g393
I200
sg394
S''
sg395
g1393
sg396
S'6'
sg397
F0
ssS'9'
(dp1397
g393
I50
sg394
S'1'
sg395
g260
sg396
S'9'
sg397
F0
ssS'8'
(dp1398
g393
I200
sg394
S''
sg395
g1393
sg396
S'8'
sg397
F0
sssg408
I0
sg409
F0
sg410
g253
sg376
F0
sg411
I0
sg412
I0
sg413
I800
sg414
I12
sssg1365
F32
sg1366
F0
sg1367
F3680
sg1368
F200
sg396
S'3'
sg1369
S'LPD-LPG0'
p1399
sg1371
S''
sg412
I0
sg1372
S''
sg1373
F0.25
sg478
F5
sg1374
S'107'
p1400
sg409
F0
sg376
F60
sg488
S'LPD3-Neutral-LPD'
p1401
sg382
F0
sg388
F11400
sg408
I0
ssS'2'
(dp1402
g368
I0
sg1348
F93
sg1349
F134
sg1350
I0
sg375
I0
sg413
F300
sg1351
F0
sg21
(dp1403
g253
(dp1404
g368
I0
sg381
I0
sg382
I0
sg383
I0
sg384
S''
sg385
I6
sg30
(dp1405
S'1'
(dp1406
g418
S''
sg419
I0
sg420
F0
sg421
F0
sg422
F2
sg423
F0
sg424
I200
sg425
I1
sg395
S'1'
sg396
S'1'
sg393
I200
sssg375
I0
sg387
I600
sg388
F9400
sg389
I0
sg48
(dp1407
S'10'
p1408
(dp1409
g393
I50
sg394
S'1'
sg395
g260
sg396
g1408
sg397
F0
ssS'1'
(dp1410
g393
I100
sg394
S''
sg395
S'26'
p1411
sg396
S'1'
sg397
F0
ssS'3'
(dp1412
g393
I100
sg394
S''
sg395
S'8'
sg396
S'3'
sg397
F0
ssS'2'
(dp1413
g393
I100
sg394
S''
sg395
S'8'
sg396
S'2'
sg397
F0
ssS'5'
(dp1414
g393
I100
sg394
S''
sg395
g1411
sg396
S'5'
sg397
F0
ssS'4'
(dp1415
g393
I100
sg394
S''
sg395
S'8'
sg396
S'4'
sg397
F0
ssS'7'
(dp1416
g393
I50
sg394
S'1'
sg395
g260
sg396
S'7'
sg397
F0
ssS'6'
(dp1417
g393
I100
sg394
S''
sg395
g1411
sg396
S'6'
sg397
F0
ssS'9'
(dp1418
g393
I50
sg394
S'1'
sg395
g260
sg396
S'9'
sg397
F0
ssS'8'
(dp1419
g393
I50
sg394
S'1'
sg395
g260
sg396
S'8'
sg397
F0
sssg408
I0
sg409
F0
sg410
g253
sg376
F0
sg411
I0
sg412
I0
sg413
I300
sg414
I10
sssg1365
F27
sg1366
F0
sg1367
F2280
sg1368
F200
sg396
S'2'
sg1369
S'LFD-LPG0'
p1420
sg1371
S''
sg412
I0
sg1372
S''
sg1373
F0.66666666666666663
sg478
F5
sg1374
S'104'
p1421
sg409
F0
sg376
F60
sg488
S'LFD2-Neutral-LFD'
p1422
sg382
F0
sg388
F10400
sg408
I0
sssS'color1'
p1423
S'white'
p1424
sS'color2'
p1425
S'black'
p1426
sS'shipDesigns'
p1427
(dp1428
S'9'
(dp1429
g368
I0
sg1348
F438
sg1349
F828
sg1350
I0
sg375
I0
sg413
F400
sg1351
F100
sg21
(dp1430
g227
(dp1431
g368
I0
sg381
I0
sg382
I0
sg383
I0
sg384
S''
sg385
I0
sg30
(dp1432
sg375
I0
sg387
I0
sg388
F10000
sg389
I0
sg48
(dp1433
g391
(dp1434
g393
I50
sg394
S''
sg395
S'1'
sg396
g391
sg397
F0
ssS'1'
(dp1435
g393
I50
sg394
S''
sg395
S'7'
sg396
S'1'
sg397
F0
ssS'3'
(dp1436
g393
I50
sg394
S''
sg395
S'7'
sg396
S'3'
sg397
F0
ssS'2'
(dp1437
g393
I50
sg394
S''
sg395
S'7'
sg396
S'2'
sg397
F0
ssS'5'
(dp1438
g393
I50
sg394
S''
sg395
g402
sg396
S'5'
sg397
F0
ssS'4'
(dp1439
g393
I50
sg394
S''
sg395
S'4'
sg396
S'4'
sg397
F0
ssS'7'
(dp1440
g393
I50
sg394
S''
sg395
S'1'
sg396
S'7'
sg397
F0
ssS'6'
(dp1441
g393
I50
sg394
S''
sg395
S'1'
sg396
S'6'
sg397
F0
ssS'9'
(dp1442
g393
I50
sg394
S''
sg395
S'1'
sg396
S'9'
sg397
F0
ssS'8'
(dp1443
g393
I50
sg394
S''
sg395
S'1'
sg396
S'8'
sg397
F0
sssg408
I0
sg409
F50
sg410
g227
sg376
F24
sg411
I0
sg412
I0
sg413
I150
sg414
I10
ssg237
(dp1444
g368
I0
sg381
I0
sg382
I0
sg383
I0
sg384
S''
sg385
I0
sg30
(dp1445
S'1'
(dp1446
g418
S''
sg419
I0
sg420
F0
sg421
F90
sg422
F2.5
sg423
F0
sg424
I300
sg425
I1
sg395
g426
sg396
S'1'
sg393
I300
sssg375
I0
sg387
I0
sg388
F10000
sg389
I0
sg48
(dp1447
g428
(dp1448
g393
I50
sg394
S''
sg395
g402
sg396
g428
sg397
F0
ssS'1'
(dp1449
g393
I50
sg394
S'1'
sg395
g260
sg396
S'1'
sg397
F0
ssS'3'
(dp1450
g393
I50
sg394
S'1'
sg395
g260
sg396
S'3'
sg397
F0
ssS'2'
(dp1451
g393
I50
sg394
S'1'
sg395
g260
sg396
S'2'
sg397
F0
ssS'5'
(dp1452
g393
I50
sg394
S'1'
sg395
g260
sg396
S'5'
sg397
F0
ssS'4'
(dp1453
g393
I50
sg394
S'1'
sg395
g260
sg396
S'4'
sg397
F0
ssS'7'
(dp1454
g393
I50
sg394
S''
sg395
S'7'
sg396
S'7'
sg397
F0
ssS'6'
(dp1455
g393
I50
sg394
S'1'
sg395
g260
sg396
S'6'
sg397
F0
ssS'9'
(dp1456
g393
I50
sg394
S''
sg395
g402
sg396
S'9'
sg397
F0
ssS'8'
(dp1457
g393
I50
sg394
S''
sg395
S'4'
sg396
S'8'
sg397
F0
sssg408
I0
sg409
F0
sg410
g237
sg376
F24
sg411
I0
sg412
I0
sg413
I50
sg414
I10
ssg245
(dp1458
g368
I0
sg381
I0
sg382
I0
sg383
I0
sg384
S''
sg385
I0
sg30
(dp1459
S'1'
(dp1460
g418
S''
sg419
I0
sg420
F0
sg421
F90
sg422
F2.5
sg423
F0
sg424
I300
sg425
I1
sg395
g426
sg396
S'1'
sg393
I300
ssS'2'
(dp1461
g418
S''
sg419
I0
sg420
F0
sg421
F0
sg422
F0.29999999999999999
sg423
F0
sg424
I200
sg425
I1
sg395
S'4'
sg396
S'2'
sg393
I200
sssg375
I0
sg387
I0
sg388
F10000
sg389
I0
sg48
(dp1462
g444
(dp1463
g393
I50
sg394
S'2'
sg395
g260
sg396
g444
sg397
F0
ssS'1'
(dp1464
g393
I50
sg394
S'1'
sg395
g260
sg396
S'1'
sg397
F0
ssS'3'
(dp1465
g393
I50
sg394
S'1'
sg395
g260
sg396
S'3'
sg397
F0
ssS'2'
(dp1466
g393
I50
sg394
S'1'
sg395
g260
sg396
S'2'
sg397
F0
ssS'5'
(dp1467
g393
I50
sg394
S'1'
sg395
g260
sg396
S'5'
sg397
F0
ssS'4'
(dp1468
g393
I50
sg394
S'1'
sg395
g260
sg396
S'4'
sg397
F0
ssS'7'
(dp1469
g393
I50
sg394
S'2'
sg395
g260
sg396
S'7'
sg397
F0
ssS'6'
(dp1470
g393
I50
sg394
S'1'
sg395
g260
sg396
S'6'
sg397
F0
ssS'9'
(dp1471
g393
I50
sg394
S'2'
sg395
g260
sg396
S'9'
sg397
F0
ssS'8'
(dp1472
g393
I50
sg394
S'2'
sg395
g260
sg396
S'8'
sg397
F0
sssg408
I0
sg409
I0
sg410
g245
sg376
I0
sg411
I0
sg412
I0
sg413
I0
sg414
I10
ssg253
(dp1473
g368
I0
sg381
I0
sg382
I0
sg383
I0
sg384
S''
sg385
I0
sg30
(dp1474
sg375
I0
sg387
I0
sg388
F10000
sg389
I0
sg48
(dp1475
g458
(dp1476
g393
I50
sg394
S''
sg395
S'1'
sg396
g458
sg397
F0
ssS'1'
(dp1477
g393
I50
sg394
S''
sg395
S'7'
sg396
S'1'
sg397
F0
ssS'3'
(dp1478
g393
I50
sg394
S''
sg395
S'7'
sg396
S'3'
sg397
F0
ssS'2'
(dp1479
g393
I50
sg394
S''
sg395
S'7'
sg396
S'2'
sg397
F0
ssS'5'
(dp1480
g393
I50
sg394
S''
sg395
S'4'
sg396
S'5'
sg397
F0
ssS'4'
(dp1481
g393
I50
sg394
S''
sg395
S'7'
sg396
S'4'
sg397
F0
ssS'7'
(dp1482
g393
I50
sg394
S''
sg395
S'1'
sg396
S'7'
sg397
F0
ssS'6'
(dp1483
g393
I50
sg394
S''
sg395
S'1'
sg396
S'6'
sg397
F0
ssS'9'
(dp1484
g393
I50
sg394
S''
sg395
S'1'
sg396
S'9'
sg397
F0
ssS'8'
(dp1485
g393
I50
sg394
S''
sg395
S'1'
sg396
S'8'
sg397
F0
sssg408
I0
sg409
F50
sg410
g253
sg376
F24
sg411
I0
sg412
I0
sg413
I200
sg414
I10
sssg1365
F162
sg1366
F0.25
sg1367
F8580
sg1368
F350
sg396
S'9'
sg1369
S'HCO--MNT90-MNT90APG0-'
p1486
sg1371
S''
sg412
I0
sg1372
S''
sg1373
F0.875
sg478
F2
sg1374
S'4'
sg409
F100
sg376
F46.079999999999998
sg488
S'HCO9-Neutral-HCO'
p1487
sg382
F0
sg388
F50000
sg408
I0
ssg564
(dp1488
g368
I0
sg1348
F426
sg1349
F792
sg1350
I0
sg375
I0
sg413
F350
sg1351
F100
sg21
(dp1489
g227
(dp1490
g368
I0
sg381
I0
sg382
I0
sg383
I0
sg384
S''
sg385
I0
sg30
(dp1491
S'1'
(dp1492
g418
S''
sg419
I0
sg420
F0
sg421
F0
sg422
F0.29999999999999999
sg423
F0
sg424
I200
sg425
I1
sg395
S'4'
sg396
S'1'
sg393
I200
sssg375
I0
sg387
I0
sg388
F10000
sg389
I0
sg48
(dp1493
g502
(dp1494
g393
I50
sg394
S''
sg395
S'1'
sg396
g502
sg397
F0
ssS'1'
(dp1495
g393
I50
sg394
S'1'
sg395
g260
sg396
S'1'
sg397
F0
ssS'3'
(dp1496
g393
I50
sg394
S'1'
sg395
g260
sg396
S'3'
sg397
F0
ssS'2'
(dp1497
g393
I50
sg394
S'1'
sg395
g260
sg396
S'2'
sg397
F0
ssS'5'
(dp1498
g393
I50
sg394
S''
sg395
S'7'
sg396
S'5'
sg397
F0
ssS'4'
(dp1499
g393
I50
sg394
S'1'
sg395
g260
sg396
S'4'
sg397
F0
ssS'7'
(dp1500
g393
I50
sg394
S''
sg395
S'7'
sg396
S'7'
sg397
F0
ssS'6'
(dp1501
g393
I50
sg394
S''
sg395
S'7'
sg396
S'6'
sg397
F0
ssS'9'
(dp1502
g393
I50
sg394
S''
sg395
S'1'
sg396
S'9'
sg397
F0
ssS'8'
(dp1503
g393
I50
sg394
S''
sg395
S'4'
sg396
S'8'
sg397
F0
sssg408
I0
sg409
F20
sg410
g227
sg376
F24
sg411
I0
sg412
I0
sg413
I150
sg414
I10
ssg237
(dp1504
g368
I0
sg381
I0
sg382
I0
sg383
I0
sg384
S''
sg385
I0
sg30
(dp1505
S'1'
(dp1506
g418
S''
sg419
I0
sg420
F0
sg421
F270
sg422
F3
sg423
F0
sg424
I400
sg425
I1
sg395
g516
sg396
S'1'
sg393
I400
sssg375
I0
sg387
I0
sg388
F10000
sg389
I0
sg48
(dp1507
g518
(dp1508
g393
I50
sg394
S''
sg395
g520
sg396
g518
sg397
F0
ssS'1'
(dp1509
g393
I50
sg394
S'1'
sg395
g260
sg396
S'1'
sg397
F0
ssS'3'
(dp1510
g393
I50
sg394
S'1'
sg395
g260
sg396
S'3'
sg397
F0
ssS'2'
(dp1511
g393
I50
sg394
S'1'
sg395
g260
sg396
S'2'
sg397
F0
ssS'5'
(dp1512
g393
I50
sg394
S'1'
sg395
g260
sg396
S'5'
sg397
F0
ssS'4'
(dp1513
g393
I50
sg394
S'1'
sg395
g260
sg396
S'4'
sg397
F0
ssS'7'
(dp1514
g393
I50
sg394
S'1'
sg395
g260
sg396
S'7'
sg397
F0
ssS'6'
(dp1515
g393
I50
sg394
S'1'
sg395
g260
sg396
S'6'
sg397
F0
ssS'9'
(dp1516
g393
I50
sg394
S''
sg395
g520
sg396
S'9'
sg397
F0
ssS'8'
(dp1517
g393
I50
sg394
S'1'
sg395
g260
sg396
S'8'
sg397
F0
sssg408
I0
sg409
F0
sg410
g237
sg376
F0
sg411
I0
sg412
I0
sg413
I0
sg414
I10
ssg245
(dp1518
g368
I0
sg381
I0
sg382
I0
sg383
I0
sg384
S''
sg385
I0
sg30
(dp1519
S'1'
(dp1520
g418
S''
sg419
I0
sg420
F0
sg421
F270
sg422
F3
sg423
F0
sg424
I400
sg425
I1
sg395
g516
sg396
S'1'
sg393
I400
sssg375
I0
sg387
I0
sg388
F10000
sg389
I0
sg48
(dp1521
g534
(dp1522
g393
I50
sg394
S''
sg395
g520
sg396
g534
sg397
F0
ssS'1'
(dp1523
g393
I50
sg394
S'1'
sg395
g260
sg396
S'1'
sg397
F0
ssS'3'
(dp1524
g393
I50
sg394
S'1'
sg395
g260
sg396
S'3'
sg397
F0
ssS'2'
(dp1525
g393
I50
sg394
S'1'
sg395
g260
sg396
S'2'
sg397
F0
ssS'5'
(dp1526
g393
I50
sg394
S'1'
sg395
g260
sg396
S'5'
sg397
F0
ssS'4'
(dp1527
g393
I50
sg394
S'1'
sg395
g260
sg396
S'4'
sg397
F0
ssS'7'
(dp1528
g393
I50
sg394
S'1'
sg395
g260
sg396
S'7'
sg397
F0
ssS'6'
(dp1529
g393
I50
sg394
S'1'
sg395
g260
sg396
S'6'
sg397
F0
ssS'9'
(dp1530
g393
I50
sg394
S''
sg395
g520
sg396
S'9'
sg397
F0
ssS'8'
(dp1531
g393
I50
sg394
S'1'
sg395
g260
sg396
S'8'
sg397
F0
sssg408
I0
sg409
F0
sg410
g245
sg376
F0
sg411
I0
sg412
I0
sg413
I0
sg414
I10
ssg253
(dp1532
g368
I0
sg381
I0
sg382
I0
sg383
I0
sg384
S''
sg385
I0
sg30
(dp1533
sg375
I0
sg387
I0
sg388
F10000
sg389
I0
sg48
(dp1534
g548
(dp1535
g393
I50
sg394
S''
sg395
S'1'
sg396
g548
sg397
F0
ssS'1'
(dp1536
g393
I50
sg394
S''
sg395
S'7'
sg396
S'1'
sg397
F0
ssS'3'
(dp1537
g393
I50
sg394
S''
sg395
S'7'
sg396
S'3'
sg397
F0
ssS'2'
(dp1538
g393
I50
sg394
S''
sg395
S'7'
sg396
S'2'
sg397
F0
ssS'5'
(dp1539
g393
I50
sg394
S''
sg395
S'4'
sg396
S'5'
sg397
F0
ssS'4'
(dp1540
g393
I50
sg394
S''
sg395
S'7'
sg396
S'4'
sg397
F0
ssS'7'
(dp1541
g393
I50
sg394
S''
sg395
S'1'
sg396
S'7'
sg397
F0
ssS'6'
(dp1542
g393
I50
sg394
S''
sg395
S'1'
sg396
S'6'
sg397
F0
ssS'9'
(dp1543
g393
I50
sg394
S''
sg395
S'1'
sg396
S'9'
sg397
F0
ssS'8'
(dp1544
g393
I50
sg394
S''
sg395
S'1'
sg396
S'8'
sg397
F0
sssg408
I0
sg409
F50
sg410
g253
sg376
F24
sg411
I0
sg412
I0
sg413
I200
sg414
I10
sssg1365
F168
sg1366
F0.2857142857142857
sg1367
F8300
sg1368
F950
sg396
g564
sg1369
S'HCO-APG0-HNM270-HNM270-'
p1545
sg1371
S''
sg412
I0
sg1372
S''
sg1373
F2.7142857142857144
sg478
F1.3999999999999999
sg1374
S'4'
sg409
F70
sg376
F30.719999999999999
sg488
S'HCO11-Neutral-HCO'
p1546
sg382
F0
sg388
F50000
sg408
I0
sssg43
S'0'
ssS'5'
(dp1547
g1343
S''
sg215
S'Pink Empire'
p1548
sg1345
(dp1549
S'1'
(dp1550
g368
I0
sg1348
F52
sg1349
F68
sg1350
I0
sg375
I0
sg413
F100
sg1351
F0
sg21
(dp1551
g253
(dp1552
g368
I0
sg381
I0
sg382
I0
sg383
I0
sg384
S''
sg385
I2
sg30
(dp1553
S'1'
(dp1554
g418
S''
sg419
I0
sg420
F0
sg421
F0
sg422
F2
sg423
F0
sg424
I200
sg425
I1
sg395
S'1'
sg396
S'1'
sg393
I200
sssg375
I0
sg387
I200
sg388
F8000
sg389
I0
sg48
(dp1555
S'1'
(dp1556
g393
I50
sg394
S''
sg395
S'7'
sg396
S'1'
sg397
F0
ssS'3'
(dp1557
g393
I50
sg394
S''
sg395
g236
sg396
S'3'
sg397
F0
ssS'2'
(dp1558
g393
I50
sg394
S''
sg395
S'7'
sg396
S'2'
sg397
F0
ssS'5'
(dp1559
g393
I50
sg394
S'1'
sg395
g260
sg396
S'5'
sg397
F0
ssS'4'
(dp1560
g393
I50
sg394
S''
sg395
g236
sg396
S'4'
sg397
F0
ssS'7'
(dp1561
g393
I50
sg394
S'1'
sg395
g260
sg396
S'7'
sg397
F0
ssS'6'
(dp1562
g393
I50
sg394
S'1'
sg395
g260
sg396
S'6'
sg397
F0
ssS'8'
(dp1563
g393
I50
sg394
S'1'
sg395
g260
sg396
S'8'
sg397
F0
sssg408
I0
sg409
F0
sg410
g253
sg376
F0
sg411
I0
sg412
I0
sg413
I100
sg414
I8
sssg1365
F22
sg1366
F0
sg1367
F1280
sg1368
F200
sg396
S'1'
sg1369
S'LND-LPG0'
p1564
sg1371
S''
sg412
I0
sg1372
S''
sg1373
F2
sg478
F5
sg1374
g1375
sg409
F0
sg376
F60
sg488
S'LND1-Neutral-LND'
p1565
sg382
F0
sg388
F9000
sg408
I0
ssS'3'
(dp1566
g368
I0
sg1348
F198
sg1349
F228
sg1350
I0
sg375
I0
sg413
F800
sg1351
F0
sg21
(dp1567
g253
(dp1568
g368
I0
sg381
I0
sg382
I0
sg383
I0
sg384
S''
sg385
I12
sg30
(dp1569
S'1'
(dp1570
g418
S''
sg419
I0
sg420
F0
sg421
F0
sg422
F2
sg423
F0
sg424
I200
sg425
I1
sg395
S'1'
sg396
S'1'
sg393
I200
sssg375
I0
sg387
I1200
sg388
F10400
sg389
I0
sg48
(dp1571
S'11'
p1572
(dp1573
g393
I50
sg394
S'1'
sg395
g260
sg396
g1572
sg397
F0
ssS'10'
p1574
(dp1575
g393
I50
sg394
S'1'
sg395
g260
sg396
g1574
sg397
F0
ssS'12'
p1576
(dp1577
g393
I50
sg394
S'1'
sg395
g260
sg396
g1576
sg397
F0
ssS'1'
(dp1578
g393
I200
sg394
S''
sg395
S'9'
sg396
S'1'
sg397
F0
ssS'3'
(dp1579
g393
I200
sg394
S''
sg395
S'9'
sg396
S'3'
sg397
F0
ssS'2'
(dp1580
g393
I200
sg394
S''
sg395
S'9'
sg396
S'2'
sg397
F0
ssS'5'
(dp1581
g393
I200
sg394
S''
sg395
g1393
sg396
S'5'
sg397
F0
ssS'4'
(dp1582
g393
I200
sg394
S''
sg395
S'9'
sg396
S'4'
sg397
F0
ssS'7'
(dp1583
g393
I200
sg394
S''
sg395
g1393
sg396
S'7'
sg397
F0
ssS'6'
(dp1584
g393
I200
sg394
S''
sg395
g1393
sg396
S'6'
sg397
F0
ssS'9'
(dp1585
g393
I50
sg394
S'1'
sg395
g260
sg396
S'9'
sg397
F0
ssS'8'
(dp1586
g393
I200
sg394
S''
sg395
g1393
sg396
S'8'
sg397
F0
sssg408
I0
sg409
F0
sg410
g253
sg376
F0
sg411
I0
sg412
I0
sg413
I800
sg414
I12
sssg1365
F32
sg1366
F0
sg1367
F3680
sg1368
F200
sg396
S'3'
sg1369
S'LPD-LPG0'
p1587
sg1371
S''
sg412
I0
sg1372
S''
sg1373
F0.25
sg478
F5
sg1374
g1400
sg409
F0
sg376
F60
sg488
S'LPD3-Neutral-LPD'
p1588
sg382
F0
sg388
F11400
sg408
I0
ssS'2'
(dp1589
g368
I0
sg1348
F93
sg1349
F134
sg1350
I0
sg375
I0
sg413
F300
sg1351
F0
sg21
(dp1590
g253
(dp1591
g368
I0
sg381
I0
sg382
I0
sg383
I0
sg384
S''
sg385
I6
sg30
(dp1592
S'1'
(dp1593
g418
S''
sg419
I0
sg420
F0
sg421
F0
sg422
F2
sg423
F0
sg424
I200
sg425
I1
sg395
S'1'
sg396
S'1'
sg393
I200
sssg375
I0
sg387
I600
sg388
F9400
sg389
I0
sg48
(dp1594
S'10'
p1595
(dp1596
g393
I50
sg394
S'1'
sg395
g260
sg396
g1595
sg397
F0
ssS'1'
(dp1597
g393
I100
sg394
S''
sg395
g1411
sg396
S'1'
sg397
F0
ssS'3'
(dp1598
g393
I100
sg394
S''
sg395
S'8'
sg396
S'3'
sg397
F0
ssS'2'
(dp1599
g393
I100
sg394
S''
sg395
S'8'
sg396
S'2'
sg397
F0
ssS'5'
(dp1600
g393
I100
sg394
S''
sg395
g1411
sg396
S'5'
sg397
F0
ssS'4'
(dp1601
g393
I100
sg394
S''
sg395
S'8'
sg396
S'4'
sg397
F0
ssS'7'
(dp1602
g393
I50
sg394
S'1'
sg395
g260
sg396
S'7'
sg397
F0
ssS'6'
(dp1603
g393
I100
sg394
S''
sg395
g1411
sg396
S'6'
sg397
F0
ssS'9'
(dp1604
g393
I50
sg394
S'1'
sg395
g260
sg396
S'9'
sg397
F0
ssS'8'
(dp1605
g393
I50
sg394
S'1'
sg395
g260
sg396
S'8'
sg397
F0
sssg408
I0
sg409
F0
sg410
g253
sg376
F0
sg411
I0
sg412
I0
sg413
I300
sg414
I10
sssg1365
F27
sg1366
F0
sg1367
F2280
sg1368
F200
sg396
S'2'
sg1369
S'LFD-LPG0'
p1606
sg1371
S''
sg412
I0
sg1372
S''
sg1373
F0.66666666666666663
sg478
F5
sg1374
g1421
sg409
F0
sg376
F60
sg488
S'LFD2-Neutral-LFD'
p1607
sg382
F0
sg388
F10400
sg408
I0
ssS'4'
(dp1608
g11
I0
sS'costEC'
p1609
F101
sS'costAL'
p1610
F234
sS'obsolete'
p1611
I0
sg16
I0
sg85
F200
sS'totalAMSPower'
p1612
F0
sg21
(dp1613
S'fore'
p1614
(dp1615
g11
I0
sg25
I0
sg26
I0
sg27
I3000
sg28
S'impact'
p1616
sg29
I6
sg30
(dp1617
S'1'
(dp1618
g33
S''
sg34
I0
sg35
F0
sg36
F270
sg37
F2
sg38
F0
sg39
I400
sg40
I1
sg41
S'5'
sg43
S'1'
sg44
I400
sssg16
I0
sg45
I600
sg46
F13000
sg47
I0
sg48
(dp1619
S'11'
p1620
(dp1621
g44
I100
sg52
S'1'
sg41
g53
sg43
g1620
sg54
F0
ssS'10'
p1622
(dp1623
g44
I100
sg52
S''
sg41
S'8'
sg43
g1622
sg54
F0
ssS'13'
p1624
(dp1625
g44
I100
sg52
S'1'
sg41
g53
sg43
g1624
sg54
F0
ssS'12'
p1626
(dp1627
g44
I100
sg52
S'1'
sg41
g53
sg43
g1626
sg54
F0
ssS'14'
p1628
(dp1629
g44
I100
sg52
S'1'
sg41
g53
sg43
g1628
sg54
F0
ssS'1'
(dp1630
g44
I100
sg52
S''
sg41
S'26'
p1631
sg43
S'1'
sg54
F0
ssS'3'
(dp1632
g44
I100
sg52
S''
sg41
S'26'
p1633
sg43
S'3'
sg54
F0
ssS'2'
(dp1634
g44
I100
sg52
S''
sg41
S'26'
p1635
sg43
S'2'
sg54
F0
ssS'5'
(dp1636
g44
I100
sg52
S''
sg41
S'32'
p1637
sg43
S'5'
sg54
F0
ssS'4'
(dp1638
g44
I100
sg52
S''
sg41
S'32'
p1639
sg43
S'4'
sg54
F0
ssS'7'
(dp1640
g44
I100
sg52
S''
sg41
S'32'
p1641
sg43
S'7'
sg54
F0
ssS'6'
(dp1642
g44
I100
sg52
S''
sg41
S'32'
p1643
sg43
S'6'
sg54
F0
ssS'9'
(dp1644
g44
I100
sg52
S''
sg41
S'8'
sg43
S'9'
sg54
F0
ssS'8'
(dp1645
g44
I100
sg52
S''
sg41
S'32'
p1646
sg43
S'8'
sg54
F0
sssg80
I0
sg81
F0
sg82
g1614
sg17
F0
sg83
I0
sg84
I0
sg85
I200
sg86
I14
sssS'costIA'
p1647
F39
sS'amsFireRate'
p1648
F0
sS'costCR'
p1649
F3560
sS'totalWeapPower'
p1650
F300
sg43
S'4'
sS'abr'
p1651
S'HFD-LFC270'
p1652
sS'techReq'
p1653
S''
sg84
I0
sS'description'
p1654
S''
sS'weapFireRate'
p1655
F1.5
sg205
F5
sS'shipHullID'
p1656
S'106'
p1657
sg81
F0
sg17
F60
sg215
S'HFD4-SHIELD I'
p1658
sg26
F0
sg46
F15000
sg80
I0
sssg1423
S'pink'
p1659
sg1425
S'dkpurple'
p1660
sg1427
(dp1661
g278
(dp1662
g368
I0
sg1348
F440
sg1349
F876
sg1350
I1
sg375
I0
sg413
F200
sg1351
F100
sg21
(dp1663
g227
(dp1664
g368
I0
sg381
I0
sg382
I0
sg383
I300
sg384
g229
sg385
I1
sg30
(dp1665
sg375
I0
sg387
I100
sg388
F3000
sg389
I0
sg48
(dp1666
S'1'
(dp1667
g393
I50
sg394
S''
sg395
S'1'
sg396
S'1'
sg397
F0
ssS'3'
(dp1668
g393
I50
sg394
S''
sg395
g234
sg396
S'3'
sg397
F0
ssS'2'
(dp1669
g393
I50
sg394
S''
sg395
g236
sg396
S'2'
sg397
F0
sssg408
I0
sg409
F10
sg410
g227
sg376
F0
sg411
I0
sg412
I0
sg413
I0
sg414
I3
ssg237
(dp1670
g368
I0
sg381
I0
sg382
I0
sg383
I300
sg384
g229
sg385
I1
sg30
(dp1671
sg375
I0
sg387
I100
sg388
F4000
sg389
I0
sg48
(dp1672
S'1'
(dp1673
g393
I50
sg394
S''
sg395
S'1'
sg396
S'1'
sg397
F0
ssS'3'
(dp1674
g393
I50
sg394
S''
sg395
g234
sg396
S'3'
sg397
F0
ssS'2'
(dp1675
g393
I50
sg394
S''
sg395
g236
sg396
S'2'
sg397
F0
ssS'4'
(dp1676
g393
I50
sg394
S''
sg395
S'4'
sg396
S'4'
sg397
F0
sssg408
I0
sg409
F10
sg410
g237
sg376
F24
sg411
I0
sg412
I0
sg413
I0
sg414
I4
ssg245
(dp1677
g368
I0
sg381
I0
sg382
I0
sg383
I300
sg384
g229
sg385
I1
sg30
(dp1678
sg375
I0
sg387
I100
sg388
F4000
sg389
I0
sg48
(dp1679
S'1'
(dp1680
g393
I50
sg394
S''
sg395
S'1'
sg396
S'1'
sg397
F0
ssS'3'
(dp1681
g393
I50
sg394
S''
sg395
g234
sg396
S'3'
sg397
F0
ssS'2'
(dp1682
g393
I50
sg394
S''
sg395
g236
sg396
S'2'
sg397
F0
ssS'4'
(dp1683
g393
I50
sg394
S''
sg395
S'4'
sg396
S'4'
sg397
F0
sssg408
I0
sg409
F10
sg410
g245
sg376
F24
sg411
I0
sg412
I0
sg413
I0
sg414
I4
ssg253
(dp1684
g368
I0
sg381
I0
sg382
I0
sg383
I300
sg384
g229
sg385
I1
sg30
(dp1685
S'1'
(dp1686
g418
S''
sg419
I0
sg420
F0
sg421
F0
sg422
F0.29999999999999999
sg423
F0
sg424
I200
sg425
I1
sg395
S'4'
sg396
S'1'
sg393
I200
sssg375
I0
sg387
I100
sg388
F11000
sg389
I0
sg48
(dp1687
g258
(dp1688
g393
I50
sg394
S'1'
sg395
g260
sg396
g258
sg397
F0
ssg261
(dp1689
g393
I50
sg394
S'1'
sg395
g260
sg396
g261
sg397
F0
ssS'1'
(dp1690
g393
I50
sg394
S''
sg395
S'1'
sg396
S'1'
sg397
F0
ssS'3'
(dp1691
g393
I50
sg394
S''
sg395
g234
sg396
S'3'
sg397
F0
ssS'2'
(dp1692
g393
I50
sg394
S''
sg395
g236
sg396
S'2'
sg397
F0
ssS'5'
(dp1693
g393
I50
sg394
S''
sg395
S'7'
sg396
S'5'
sg397
F0
ssS'4'
(dp1694
g393
I50
sg394
S''
sg395
S'7'
sg396
S'4'
sg397
F0
ssS'7'
(dp1695
g393
I50
sg394
S''
sg395
S'7'
sg396
S'7'
sg397
F0
ssS'6'
(dp1696
g393
I50
sg394
S''
sg395
S'7'
sg396
S'6'
sg397
F0
ssS'9'
(dp1697
g393
I50
sg394
S'1'
sg395
g260
sg396
S'9'
sg397
F0
ssS'8'
(dp1698
g393
I50
sg394
S'1'
sg395
g260
sg396
S'8'
sg397
F0
sssg408
I0
sg409
F10
sg410
g253
sg376
F0
sg411
I0
sg412
I0
sg413
I200
sg414
I11
sssg1365
F182
sg1366
F0.5
sg1367
F9060
sg1368
F0
sg396
g278
sg1369
S'LAS----APG0'
p1699
sg1371
S''
sg412
I0
sg1372
S''
sg1373
F0
sg478
F1.1799999999999999
sg1374
S'16'
p1700
sg409
F40
sg376
F45.18
sg488
S'LAS12-Marine Transport'
p1701
sg382
F0
sg388
F34000
sg408
I0
ssg970
(dp1702
g11
I0
sg1609
F832
sg1610
F1668
sg1611
I0
sg16
I0
sg85
F500
sg1612
F300
sg21
(dp1703
g821
(dp1704
g11
I0
sg25
I10
sg26
I0
sg27
I600
sg28
g1616
sg29
I0
sg30
(dp1705
S'1'
(dp1706
g33
S''
sg34
I0
sg35
F0
sg36
F270
sg37
F2.7000000000000002
sg38
F0
sg39
I800
sg40
I1
sg41
S'7'
sg43
S'1'
sg44
I800
ssS'2'
(dp1707
g33
S''
sg34
I0
sg35
F0
sg36
F270
sg37
F0.27000000000000002
sg38
F0
sg39
I400
sg40
I1
sg41
S'29'
p1708
sg43
S'2'
sg44
I400
sssg16
I0
sg45
I0
sg46
F15600
sg47
I0
sg48
(dp1709
S'11'
p1710
(dp1711
g44
I100
sg52
S'1'
sg41
g53
sg43
g1710
sg54
F0
ssS'10'
p1712
(dp1713
g44
I100
sg52
S'1'
sg41
g53
sg43
g1712
sg54
F0
ssS'13'
p1714
(dp1715
g44
I100
sg52
S'2'
sg41
g53
sg43
g1714
sg54
F0
ssS'12'
p1716
(dp1717
g44
I100
sg52
S'1'
sg41
g53
sg43
g1716
sg54
F0
ssS'15'
p1718
(dp1719
g44
I100
sg52
S'2'
sg41
g53
sg43
g1718
sg54
F0
ssS'14'
p1720
(dp1721
g44
I100
sg52
S'2'
sg41
g53
sg43
g1720
sg54
F0
ssS'16'
p1722
(dp1723
g44
I100
sg52
S'2'
sg41
g53
sg43
g1722
sg54
F0
ssS'1'
(dp1724
g44
I100
sg52
S''
sg41
S'17'
p1725
sg43
S'1'
sg54
F0
ssS'3'
(dp1726
g44
I100
sg52
S''
sg41
S'5'
sg43
S'3'
sg54
F0
ssS'2'
(dp1727
g44
I100
sg52
S''
sg41
S'32'
p1728
sg43
S'2'
sg54
F0
ssS'5'
(dp1729
g44
I100
sg52
S'1'
sg41
g53
sg43
S'5'
sg54
F0
ssS'4'
(dp1730
g44
I100
sg52
S''
sg41
S'50'
p1731
sg43
S'4'
sg54
F0
ssS'7'
(dp1732
g44
I100
sg52
S'1'
sg41
g53
sg43
S'7'
sg54
F0
ssS'6'
(dp1733
g44
I100
sg52
S'1'
sg41
g53
sg43
S'6'
sg54
F0
ssS'9'
(dp1734
g44
I100
sg52
S'1'
sg41
g53
sg43
S'9'
sg54
F0
ssS'8'
(dp1735
g44
I100
sg52
S'1'
sg41
g53
sg43
S'8'
sg54
F0
sssg80
I0
sg81
F0
sg82
g821
sg17
F45
sg83
I0
sg84
I0
sg85
I0
sg86
I16
ssg857
(dp1736
g11
I0
sg25
I20
sg26
I0
sg27
I600
sg28
g1616
sg29
I0
sg30
(dp1737
S'1'
(dp1738
g33
S''
sg34
I0
sg35
F0
sg36
F270
sg37
F2.3999999999999999
sg38
F0
sg39
I800
sg40
I1
sg41
S'7'
sg43
S'1'
sg44
I800
ssS'2'
(dp1739
g33
S''
sg34
I0
sg35
F0
sg36
F90
sg37
F0.23999999999999999
sg38
F0
sg39
I400
sg40
I1
sg41
S'29'
p1740
sg43
S'2'
sg44
I400
sssg16
I0
sg45
I0
sg46
F15600
sg47
I0
sg48
(dp1741
S'11'
p1742
(dp1743
g44
I100
sg52
S'1'
sg41
g53
sg43
g1742
sg54
F0
ssS'10'
p1744
(dp1745
g44
I100
sg52
S'1'
sg41
g53
sg43
g1744
sg54
F0
ssS'13'
p1746
(dp1747
g44
I100
sg52
S'2'
sg41
g53
sg43
g1746
sg54
F0
ssS'12'
p1748
(dp1749
g44
I100
sg52
S'1'
sg41
g53
sg43
g1748
sg54
F0
ssS'15'
p1750
(dp1751
g44
I100
sg52
S'2'
sg41
g53
sg43
g1750
sg54
F0
ssS'14'
p1752
(dp1753
g44
I100
sg52
S'2'
sg41
g53
sg43
g1752
sg54
F0
ssS'16'
p1754
(dp1755
g44
I100
sg52
S'2'
sg41
g53
sg43
g1754
sg54
F0
ssS'1'
(dp1756
g44
I100
sg52
S''
sg41
S'17'
p1757
sg43
S'1'
sg54
F0
ssS'3'
(dp1758
g44
I100
sg52
S''
sg41
S'32'
p1759
sg43
S'3'
sg54
F0
ssS'2'
(dp1760
g44
I100
sg52
S''
sg41
S'17'
p1761
sg43
S'2'
sg54
F0
ssS'5'
(dp1762
g44
I100
sg52
S'1'
sg41
g53
sg43
S'5'
sg54
F0
ssS'4'
(dp1763
g44
I100
sg52
S''
sg41
S'50'
p1764
sg43
S'4'
sg54
F0
ssS'7'
(dp1765
g44
I100
sg52
S'1'
sg41
g53
sg43
S'7'
sg54
F0
ssS'6'
(dp1766
g44
I100
sg52
S'1'
sg41
g53
sg43
S'6'
sg54
F0
ssS'9'
(dp1767
g44
I100
sg52
S'1'
sg41
g53
sg43
S'9'
sg54
F0
ssS'8'
(dp1768
g44
I100
sg52
S'1'
sg41
g53
sg43
S'8'
sg54
F0
sssg80
I0
sg81
F0
sg82
g857
sg17
F0
sg83
I0
sg84
I0
sg85
I0
sg86
I16
ssg892
(dp1769
g11
I0
sg25
I0
sg26
I1400
sg27
I3600
sg28
g1616
sg29
I4
sg30
(dp1770
sg16
I0
sg45
I400
sg46
F14400
sg47
I0
sg48
(dp1771
S'11'
p1772
(dp1773
g44
I100
sg52
S''
sg41
S'32'
p1774
sg43
g1772
sg54
F0
ssS'10'
p1775
(dp1776
g44
I100
sg52
S''
sg41
S'32'
p1777
sg43
g1775
sg54
F0
ssS'13'
p1778
(dp1779
g44
I100
sg52
S''
sg41
S'32'
p1780
sg43
g1778
sg54
F0
ssS'12'
p1781
(dp1782
g44
I100
sg52
S''
sg41
S'32'
p1783
sg43
g1781
sg54
F0
ssS'15'
p1784
(dp1785
g44
I100
sg52
S''
sg41
S'8'
sg43
g1784
sg54
F0
ssS'14'
p1786
(dp1787
g44
I100
sg52
S''
sg41
S'5'
sg43
g1786
sg54
F0
ssS'16'
p1788
(dp1789
g44
I100
sg52
S''
sg41
S'8'
sg43
g1788
sg54
F0
ssS'1'
(dp1790
g44
I100
sg52
S''
sg41
S'11'
p1791
sg43
S'1'
sg54
F0
ssS'3'
(dp1792
g44
I100
sg52
S''
sg41
S'2'
sg43
S'3'
sg54
F0
ssS'2'
(dp1793
g44
I100
sg52
S''
sg41
S'11'
p1794
sg43
S'2'
sg54
F0
ssS'5'
(dp1795
g44
I100
sg52
S''
sg41
S'2'
sg43
S'5'
sg54
F0
ssS'4'
(dp1796
g44
I100
sg52
S''
sg41
S'2'
sg43
S'4'
sg54
F0
ssS'7'
(dp1797
g44
I100
sg52
S''
sg41
S'26'
p1798
sg43
S'7'
sg54
F0
ssS'6'
(dp1799
g44
I100
sg52
S''
sg41
S'26'
p1800
sg43
S'6'
sg54
F0
ssS'9'
(dp1801
g44
I100
sg52
S''
sg41
S'32'
p1802
sg43
S'9'
sg54
F0
ssS'8'
(dp1803
g44
I100
sg52
S''
sg41
S'32'
p1804
sg43
S'8'
sg54
F0
sssg80
I0
sg81
F48
sg82
g892
sg17
F45
sg83
I0
sg84
I0
sg85
I200
sg86
I16
ssg930
(dp1805
g11
I0
sg25
I0
sg26
I2800
sg27
I1800
sg28
g1616
sg29
I0
sg30
(dp1806
sg16
I0
sg45
I0
sg46
F14400
sg47
I0
sg48
(dp1807
S'11'
p1808
(dp1809
g44
I100
sg52
S''
sg41
S'32'
p1810
sg43
g1808
sg54
F0
ssS'10'
p1811
(dp1812
g44
I100
sg52
S''
sg41
S'32'
p1813
sg43
g1811
sg54
F0
ssS'13'
p1814
(dp1815
g44
I100
sg52
S''
sg41
S'5'
sg43
g1814
sg54
F0
ssS'12'
p1816
(dp1817
g44
I100
sg52
S''
sg41
S'32'
p1818
sg43
g1816
sg54
F0
ssS'15'
p1819
(dp1820
g44
I100
sg52
S''
sg41
S'8'
sg43
g1819
sg54
F0
ssS'14'
p1821
(dp1822
g44
I100
sg52
S''
sg41
S'8'
sg43
g1821
sg54
F0
ssS'16'
p1823
(dp1824
g44
I100
sg52
S''
sg41
S'8'
sg43
g1823
sg54
F0
ssS'1'
(dp1825
g44
I100
sg52
S''
sg41
S'11'
p1826
sg43
S'1'
sg54
F0
ssS'3'
(dp1827
g44
I100
sg52
S''
sg41
S'11'
p1828
sg43
S'3'
sg54
F0
ssS'2'
(dp1829
g44
I100
sg52
S''
sg41
S'11'
p1830
sg43
S'2'
sg54
F0
ssS'5'
(dp1831
g44
I100
sg52
S''
sg41
S'2'
sg43
S'5'
sg54
F0
ssS'4'
(dp1832
g44
I100
sg52
S''
sg41
S'11'
p1833
sg43
S'4'
sg54
F0
ssS'7'
(dp1834
g44
I100
sg52
S''
sg41
S'2'
sg43
S'7'
sg54
F0
ssS'6'
(dp1835
g44
I100
sg52
S''
sg41
S'2'
sg43
S'6'
sg54
F0
ssS'9'
(dp1836
g44
I100
sg52
S''
sg41
S'2'
sg43
S'9'
sg54
F0
ssS'8'
(dp1837
g44
I100
sg52
S''
sg41
S'2'
sg43
S'8'
sg54
F0
sssg80
I0
sg81
F80
sg82
g930
sg17
F45
sg83
I0
sg84
I0
sg85
I300
sg86
I16
sssg1647
F384
sg1648
F0.59999999999999998
sg1649
F19380
sg1650
F1200
sg43
g970
sg1651
S'DST-HFC270AAC270-HFC270AAC90--'
p1838
sg1653
S''
sg84
I0
sg1654
S''
sg1655
F2.3999999999999999
sg205
F1.6799999999999999
sg1656
S'7'
sg81
F128
sg17
F56.840000000000003
sg215
S'DST17-HMS KENNET'
p1839
sg26
F4200
sg46
F76000
sg80
I0
ssg218
(dp1840
g11
I0
sg1609
F1515
sg1610
F3402
sg1611
I0
sg16
I0
sg85
F500
sg1612
F150
sg21
(dp1841
g23
(dp1842
g11
I0
sg25
I0
sg26
I2800
sg27
I0
sg28
S''
sg29
I0
sg30
(dp1843
S'1'
(dp1844
g33
S'4'
sg34
I0
sg35
F0
sg36
F180
sg37
F7
sg38
F0
sg39
I1200
sg40
I1
sg41
g42
sg43
S'1'
sg44
I1200
sssg16
I0
sg45
I0
sg46
F15600
sg47
I0
sg48
(dp1845
g50
(dp1846
g44
I100
sg52
S'1'
sg41
g53
sg43
g50
sg54
F0
ssg55
(dp1847
g44
I100
sg52
S'1'
sg41
g53
sg43
g55
sg54
F0
ssg57
(dp1848
g44
I100
sg52
S'1'
sg41
g53
sg43
g57
sg54
F0
ssg59
(dp1849
g44
I100
sg52
S'1'
sg41
g53
sg43
g59
sg54
F0
ssg61
(dp1850
g44
I100
sg52
S'1'
sg41
g53
sg43
g61
sg54
F0
ssg63
(dp1851
g44
I100
sg52
S'1'
sg41
g53
sg43
g63
sg54
F0
ssg65
(dp1852
g44
I100
sg52
S'1'
sg41
g53
sg43
g65
sg54
F0
ssS'1'
(dp1853
g44
I100
sg52
S''
sg41
g68
sg43
S'1'
sg54
F0
ssS'3'
(dp1854
g44
I100
sg52
S''
sg41
g70
sg43
S'3'
sg54
F0
ssS'2'
(dp1855
g44
I100
sg52
S''
sg41
g72
sg43
S'2'
sg54
F0
ssS'5'
(dp1856
g44
I100
sg52
S'1'
sg41
g53
sg43
S'5'
sg54
F0
ssS'4'
(dp1857
g44
I100
sg52
S''
sg41
g75
sg43
S'4'
sg54
F0
ssS'7'
(dp1858
g44
I100
sg52
S'1'
sg41
g53
sg43
S'7'
sg54
F0
ssS'6'
(dp1859
g44
I100
sg52
S'1'
sg41
g53
sg43
S'6'
sg54
F0
ssS'9'
(dp1860
g44
I100
sg52
S'1'
sg41
g53
sg43
S'9'
sg54
F0
ssS'8'
(dp1861
g44
I100
sg52
S'1'
sg41
g53
sg43
S'8'
sg54
F0
sssg80
I0
sg81
F0
sg82
g23
sg17
F0
sg83
I0
sg84
I0
sg85
I0
sg86
I16
ssg87
(dp1862
g11
I0
sg25
I0
sg26
I2800
sg27
I0
sg28
S''
sg29
I0
sg30
(dp1863
S'1'
(dp1864
g33
S'4'
sg34
I0
sg35
F0
sg36
F180
sg37
F7
sg38
F0
sg39
I1200
sg40
I1
sg41
g91
sg43
S'1'
sg44
I1200
sssg16
I0
sg45
I0
sg46
F15600
sg47
I0
sg48
(dp1865
g93
(dp1866
g44
I100
sg52
S'1'
sg41
g53
sg43
g93
sg54
F0
ssg95
(dp1867
g44
I100
sg52
S'1'
sg41
g53
sg43
g95
sg54
F0
ssg97
(dp1868
g44
I100
sg52
S'1'
sg41
g53
sg43
g97
sg54
F0
ssg99
(dp1869
g44
I100
sg52
S'1'
sg41
g53
sg43
g99
sg54
F0
ssg101
(dp1870
g44
I100
sg52
S'1'
sg41
g53
sg43
g101
sg54
F0
ssg103
(dp1871
g44
I100
sg52
S'1'
sg41
g53
sg43
g103
sg54
F0
ssg105
(dp1872
g44
I100
sg52
S'1'
sg41
g53
sg43
g105
sg54
F0
ssS'1'
(dp1873
g44
I100
sg52
S''
sg41
g108
sg43
S'1'
sg54
F0
ssS'3'
(dp1874
g44
I100
sg52
S''
sg41
g110
sg43
S'3'
sg54
F0
ssS'2'
(dp1875
g44
I100
sg52
S''
sg41
g112
sg43
S'2'
sg54
F0
ssS'5'
(dp1876
g44
I100
sg52
S'1'
sg41
g53
sg43
S'5'
sg54
F0
ssS'4'
(dp1877
g44
I100
sg52
S''
sg41
g115
sg43
S'4'
sg54
F0
ssS'7'
(dp1878
g44
I100
sg52
S'1'
sg41
g53
sg43
S'7'
sg54
F0
ssS'6'
(dp1879
g44
I100
sg52
S'1'
sg41
g53
sg43
S'6'
sg54
F0
ssS'9'
(dp1880
g44
I100
sg52
S'1'
sg41
g53
sg43
S'9'
sg54
F0
ssS'8'
(dp1881
g44
I100
sg52
S'1'
sg41
g53
sg43
S'8'
sg54
F0
sssg80
I0
sg81
F0
sg82
g87
sg17
F0
sg83
I0
sg84
I0
sg85
I0
sg86
I16
ssg120
(dp1882
g11
I0
sg25
I0
sg26
I2800
sg27
I0
sg28
S''
sg29
I0
sg30
(dp1883
S'1'
(dp1884
g33
S'4'
sg34
I0
sg35
F0
sg36
F180
sg37
F7
sg38
F0
sg39
I1200
sg40
I1
sg41
g124
sg43
S'1'
sg44
I1200
sssg16
I0
sg45
I0
sg46
F15600
sg47
I0
sg48
(dp1885
g126
(dp1886
g44
I100
sg52
S'1'
sg41
g53
sg43
g126
sg54
F0
ssg128
(dp1887
g44
I100
sg52
S'1'
sg41
g53
sg43
g128
sg54
F0
ssg130
(dp1888
g44
I100
sg52
S'1'
sg41
g53
sg43
g130
sg54
F0
ssg132
(dp1889
g44
I100
sg52
S'1'
sg41
g53
sg43
g132
sg54
F0
ssg134
(dp1890
g44
I100
sg52
S'1'
sg41
g53
sg43
g134
sg54
F0
ssg136
(dp1891
g44
I100
sg52
S'1'
sg41
g53
sg43
g136
sg54
F0
ssg138
(dp1892
g44
I100
sg52
S'1'
sg41
g53
sg43
g138
sg54
F0
ssS'1'
(dp1893
g44
I100
sg52
S''
sg41
g141
sg43
S'1'
sg54
F0
ssS'3'
(dp1894
g44
I100
sg52
S''
sg41
g143
sg43
S'3'
sg54
F0
ssS'2'
(dp1895
g44
I100
sg52
S''
sg41
g145
sg43
S'2'
sg54
F0
ssS'5'
(dp1896
g44
I100
sg52
S'1'
sg41
g53
sg43
S'5'
sg54
F0
ssS'4'
(dp1897
g44
I100
sg52
S''
sg41
g148
sg43
S'4'
sg54
F0
ssS'7'
(dp1898
g44
I100
sg52
S'1'
sg41
g53
sg43
S'7'
sg54
F0
ssS'6'
(dp1899
g44
I100
sg52
S'1'
sg41
g53
sg43
S'6'
sg54
F0
ssS'9'
(dp1900
g44
I100
sg52
S'1'
sg41
g53
sg43
S'9'
sg54
F0
ssS'8'
(dp1901
g44
I100
sg52
S'1'
sg41
g53
sg43
S'8'
sg54
F0
sssg80
I0
sg81
F0
sg82
g120
sg17
F0
sg83
I0
sg84
I0
sg85
I0
sg86
I16
ssg153
(dp1902
g11
I0
sg25
I0
sg26
I2100
sg27
I0
sg28
S''
sg29
I0
sg30
(dp1903
S'1'
(dp1904
g33
S''
sg34
I0
sg35
F0
sg36
F0
sg37
F0.29999999999999999
sg38
F0
sg39
I400
sg40
I1
sg41
S'8'
sg43
S'1'
sg44
I400
sssg16
I0
sg45
I0
sg46
F14800
sg47
I0
sg48
(dp1905
g158
(dp1906
g44
I100
sg52
S''
sg41
S'8'
sg43
g158
sg54
F0
ssg160
(dp1907
g44
I100
sg52
S''
sg41
S'8'
sg43
g160
sg54
F0
ssg162
(dp1908
g44
I100
sg52
S'1'
sg41
g53
sg43
g162
sg54
F0
ssg164
(dp1909
g44
I100
sg52
S''
sg41
S'8'
sg43
g164
sg54
F0
ssg166
(dp1910
g44
I100
sg52
S'1'
sg41
g53
sg43
g166
sg54
F0
ssg168
(dp1911
g44
I100
sg52
S'1'
sg41
g53
sg43
g168
sg54
F0
ssg170
(dp1912
g44
I100
sg52
S'1'
sg41
g53
sg43
g170
sg54
F0
ssS'1'
(dp1913
g44
I100
sg52
S''
sg41
g173
sg43
S'1'
sg54
F0
ssS'3'
(dp1914
g44
I100
sg52
S''
sg41
g175
sg43
S'3'
sg54
F0
ssS'2'
(dp1915
g44
I100
sg52
S''
sg41
g177
sg43
S'2'
sg54
F0
ssS'5'
(dp1916
g44
I100
sg52
S''
sg41
S'2'
sg43
S'5'
sg54
F0
ssS'4'
(dp1917
g44
I100
sg52
S''
sg41
S'2'
sg43
S'4'
sg54
F0
ssS'7'
(dp1918
g44
I100
sg52
S''
sg41
S'5'
sg43
S'7'
sg54
F0
ssS'6'
(dp1919
g44
I100
sg52
S''
sg41
S'2'
sg43
S'6'
sg54
F0
ssS'9'
(dp1920
g44
I100
sg52
S''
sg41
S'8'
sg43
S'9'
sg54
F0
ssS'8'
(dp1921
g44
I100
sg52
S''
sg41
S'8'
sg43
S'8'
sg54
F0
sssg80
I0
sg81
F48
sg82
g153
sg17
F45
sg83
I0
sg84
I0
sg85
I500
sg86
I16
sssg1647
F769
sg1648
F0.29999999999999999
sg1649
F35640
sg1650
F10500
sg43
g218
sg1651
S'HCA-HFL180-HFL180-HFL180-AFC0'
p1922
sg1653
S''
sg84
I0
sg1654
S''
sg1655
F21
sg205
F0.59999999999999998
sg1656
S'14'
p1923
sg81
F48
sg17
F18.09
sg215
S'HCA16-HMS WONG'
p1924
sg26
F10500
sg46
F79600
sg80
I0
sssg43
S'5'
sssg1331
F0.80655798214166807
sg1329
S'Rdanis'
p1925
sS'dronehulldata'
p1926
(dp1927
sS'x'
F18
sS'y'
F42
sg1328
g192
sg208
S'0'
sg43
S'6'
sS'shiphulldata'
p1928
(dp1929
sb.