ccopy_reg
_reconstructor
p1
(canw.war.shipbattle
ShipBattle
p2
c__builtin__
object
p3
NtRp4
(dp5
S'count'
p6
I0
sS'shipsDict'
p7
(dp8
S'216'
p9
(dp10
S'repair'
p11
I0
sS'availSystems'
p12
(lp13
S'5'
aS'4'
aS'7'
aS'6'
aS'9'
aS'11'
p14
aS'13'
p15
aS'12'
p16
asS'takenOverByEmpire'
p17
S''
sS'radar'
p18
I0
sS'rotation'
p19
F46.079999999999998
sS'currentISP'
p20
F1000
sS'toSystem'
p21
S'8'
sS'quads'
p22
(dp23
S'aft'
p24
(dp25
g11
I0
sS'target'
p26
I0
sS'maxBattery'
p27
I0
sS'maxAP'
p28
I0
sS'typeAP'
p29
S''
sS'genSP'
p30
I0
sS'weapons'
p31
(dp32
sg18
I0
sS'maxSP'
p33
I0
sS'mass'
p34
F10000
sS'currentAP'
p35
I0
sS'components'
p36
(dp37
S'10'
p38
(dp39
S'currentHP'
p40
I50
sS'weaponID'
p41
S''
sS'type'
p42
S'1'
sS'id'
p43
g38
sS'currentAmount'
p44
F0
ssS'1'
(dp45
g40
I50
sg41
S''
sg42
S'7'
sg43
S'1'
sg44
F0
ssS'3'
(dp46
g40
I50
sg41
S''
sg42
S'7'
sg43
S'3'
sg44
F0
ssS'2'
(dp47
g40
I50
sg41
S''
sg42
S'7'
sg43
S'2'
sg44
F0
ssS'5'
(dp48
g40
I50
sg41
S''
sg42
S'56'
p49
sg43
S'5'
sg44
I36
ssS'4'
(dp50
g40
I50
sg41
S''
sg42
S'4'
sg43
S'4'
sg44
F0
ssS'7'
(dp51
g40
I50
sg41
S''
sg42
S'1'
sg43
S'7'
sg44
F0
ssS'6'
(dp52
g40
I50
sg41
S''
sg42
S'1'
sg43
S'6'
sg44
F0
ssS'9'
(dp53
g40
I50
sg41
S''
sg42
S'1'
sg43
S'9'
sg44
F0
ssS'8'
(dp54
g40
I50
sg41
S''
sg42
S'1'
sg43
S'8'
sg44
F0
sssS'maxAssault'
p55
I0
sS'thrust'
p56
F50
sS'position'
p57
g24
sg19
F24
sS'currentSP'
p58
I0
sS'jamming'
p59
I0
sS'maxPower'
p60
I150
sS'currentComps'
p61
I10
ssS'star'
p62
(dp63
g11
I0
sg26
I0
sg27
I0
sg28
I0
sg29
S''
sg30
I0
sg31
(dp64
S'1'
(dp65
S'droneID'
p66
S''
sS'currentAmmo'
p67
I0
sS'currentLock'
p68
F0
sS'facing'
p69
F270
sS'maxLock'
p70
F2.5
sS'currentPower'
p71
F0
sS'maxHP'
p72
I300
sS'operational'
p73
I1
sg42
S'35'
p74
sg43
S'1'
sg40
I300
sssg18
I0
sg33
I0
sg34
F10000
sg35
I0
sg36
(dp75
S'10'
p76
(dp77
g40
I50
sg41
S''
sg42
g49
sg43
g76
sg44
I36
ssS'1'
(dp78
g40
I50
sg41
S'1'
sg42
S'64'
p79
sg43
S'1'
sg44
F0
ssS'3'
(dp80
g40
I50
sg41
S'1'
sg42
g79
sg43
S'3'
sg44
F0
ssS'2'
(dp81
g40
I50
sg41
S'1'
sg42
g79
sg43
S'2'
sg44
F0
ssS'5'
(dp82
g40
I50
sg41
S'1'
sg42
g79
sg43
S'5'
sg44
F0
ssS'4'
(dp83
g40
I50
sg41
S'1'
sg42
g79
sg43
S'4'
sg44
F0
ssS'7'
(dp84
g40
I50
sg41
S''
sg42
S'7'
sg43
S'7'
sg44
F0
ssS'6'
(dp85
g40
I50
sg41
S'1'
sg42
g79
sg43
S'6'
sg44
F0
ssS'9'
(dp86
g40
I50
sg41
S''
sg42
g49
sg43
S'9'
sg44
I36
ssS'8'
(dp87
g40
I50
sg41
S''
sg42
S'4'
sg43
S'8'
sg44
F0
sssg55
I0
sg56
F0
sg57
g62
sg19
F24
sg58
I0
sg59
I0
sg60
I50
sg61
I10
ssS'port'
p88
(dp89
g11
I0
sg26
I0
sg27
I0
sg28
I0
sg29
S''
sg30
I0
sg31
(dp90
S'1'
(dp91
g66
S''
sg67
I0
sg68
F0
sg69
F270
sg70
F2.5
sg71
F0
sg72
I300
sg73
I1
sg42
g74
sg43
S'1'
sg40
I300
ssS'2'
(dp92
g66
S''
sg67
I0
sg68
F0
sg69
F0
sg70
F0.29999999999999999
sg71
F0
sg72
I200
sg73
I1
sg42
S'4'
sg43
S'2'
sg40
I200
sssg18
I0
sg33
I0
sg34
F10000
sg35
I0
sg36
(dp93
S'10'
p94
(dp95
g40
I50
sg41
S'2'
sg42
g79
sg43
g94
sg44
F0
ssS'1'
(dp96
g40
I50
sg41
S'1'
sg42
g79
sg43
S'1'
sg44
F0
ssS'3'
(dp97
g40
I50
sg41
S'1'
sg42
g79
sg43
S'3'
sg44
F0
ssS'2'
(dp98
g40
I50
sg41
S'1'
sg42
g79
sg43
S'2'
sg44
F0
ssS'5'
(dp99
g40
I50
sg41
S'1'
sg42
g79
sg43
S'5'
sg44
F0
ssS'4'
(dp100
g40
I50
sg41
S'1'
sg42
g79
sg43
S'4'
sg44
F0
ssS'7'
(dp101
g40
I50
sg41
S'2'
sg42
g79
sg43
S'7'
sg44
F0
ssS'6'
(dp102
g40
I50
sg41
S'1'
sg42
g79
sg43
S'6'
sg44
F0
ssS'9'
(dp103
g40
I50
sg41
S'2'
sg42
g79
sg43
S'9'
sg44
F0
ssS'8'
(dp104
g40
I50
sg41
S'2'
sg42
g79
sg43
S'8'
sg44
F0
sssg55
I0
sg56
I0
sg57
g88
sg19
I0
sg58
I0
sg59
I0
sg60
I0
sg61
I10
ssS'fore'
p105
(dp106
g11
I0
sg26
I0
sg27
I0
sg28
I0
sg29
S''
sg30
I0
sg31
(dp107
sg18
I0
sg33
I0
sg34
F10000
sg35
I0
sg36
(dp108
S'10'
p109
(dp110
g40
I50
sg41
S''
sg42
S'1'
sg43
g109
sg44
F0
ssS'1'
(dp111
g40
I50
sg41
S''
sg42
S'7'
sg43
S'1'
sg44
F0
ssS'3'
(dp112
g40
I50
sg41
S''
sg42
S'7'
sg43
S'3'
sg44
F0
ssS'2'
(dp113
g40
I50
sg41
S''
sg42
S'7'
sg43
S'2'
sg44
F0
ssS'5'
(dp114
g40
I50
sg41
S''
sg42
S'4'
sg43
S'5'
sg44
F0
ssS'4'
(dp115
g40
I50
sg41
S''
sg42
S'7'
sg43
S'4'
sg44
F0
ssS'7'
(dp116
g40
I50
sg41
S''
sg42
S'1'
sg43
S'7'
sg44
F0
ssS'6'
(dp117
g40
I50
sg41
S''
sg42
S'1'
sg43
S'6'
sg44
F0
ssS'9'
(dp118
g40
I50
sg41
S''
sg42
S'1'
sg43
S'9'
sg44
F0
ssS'8'
(dp119
g40
I50
sg41
S''
sg42
S'1'
sg43
S'8'
sg44
F0
sssg55
I0
sg56
F50
sg57
g105
sg19
F24
sg58
I0
sg59
I0
sg60
I200
sg61
I10
sssS'strength'
p120
F100
sS'oldAvailSystems'
p121
(lp122
S'5'
aS'4'
aS'7'
aS'6'
aS'9'
ag14
ag15
ag16
asg43
g9
sS'targets'
p123
(lp124
S'88'
p125
aS'89'
p126
aS'87'
p127
aS'428'
p128
aS'427'
p129
aS'448'
p130
aS'447'
p131
aS'446'
p132
aS'445'
p133
aS'444'
p134
aS'90'
p135
aS'414'
p136
aS'415'
p137
aS'416'
p138
aS'417'
p139
aS'418'
p140
asS'isAssault'
p141
I0
sg59
I0
sS'currentBattery'
p142
F0
sS'accel'
p143
F2
sg71
F400
sg56
F100
sS'captainID'
p144
S'216'
p145
sS'empireID'
p146
S'0'
sS'setX'
p147
I-7
sS'setY'
p148
I-28
sS'fromSystem'
p149
S'8'
sS'repairCost'
p150
(lp151
I0
aI0
aI0
aI0
asS'isTransport'
p152
I0
sS'name'
p153
S'HCO10-Neutral-HCO-216'
p154
sg27
I0
sg69
F0
sS'designID'
p155
S'10'
p156
sS'range'
p157
F32
sg34
F50000
sS'systemGrid'
p158
I6
sS'posX'
p159
F59.666666666666686
sS'posY'
p160
F-27.999999999999986
sg55
I0
ssS'214'
p161
(dp162
g11
I0
sg12
(lp163
S'5'
aS'4'
aS'7'
aS'6'
aS'9'
ag14
ag15
ag16
asg17
S''
sg18
I0
sg19
F46.079999999999998
sg20
F1000
sg21
S'8'
sg22
(dp164
g24
(dp165
g11
I0
sg26
I0
sg27
I0
sg28
I0
sg29
S''
sg30
I0
sg31
(dp166
sg18
I0
sg33
I0
sg34
F10000
sg35
I0
sg36
(dp167
S'10'
p168
(dp169
g40
I50
sg41
S''
sg42
S'1'
sg43
g168
sg44
F0
ssS'1'
(dp170
g40
I50
sg41
S''
sg42
S'7'
sg43
S'1'
sg44
F0
ssS'3'
(dp171
g40
I50
sg41
S''
sg42
S'7'
sg43
S'3'
sg44
F0
ssS'2'
(dp172
g40
I50
sg41
S''
sg42
S'7'
sg43
S'2'
sg44
F0
ssS'5'
(dp173
g40
I50
sg41
S''
sg42
g74
sg43
S'5'
sg44
I36
ssS'4'
(dp174
g40
I50
sg41
S''
sg42
S'4'
sg43
S'4'
sg44
F0
ssS'7'
(dp175
g40
I50
sg41
S''
sg42
S'1'
sg43
S'7'
sg44
F0
ssS'6'
(dp176
g40
I50
sg41
S''
sg42
S'1'
sg43
S'6'
sg44
F0
ssS'9'
(dp177
g40
I50
sg41
S''
sg42
S'1'
sg43
S'9'
sg44
F0
ssS'8'
(dp178
g40
I50
sg41
S''
sg42
S'1'
sg43
S'8'
sg44
F0
sssg55
I0
sg56
F50
sg57
g24
sg19
F24
sg58
I0
sg59
I0
sg60
I150
sg61
I10
ssg62
(dp179
g11
I0
sg26
I0
sg27
I0
sg28
I0
sg29
S''
sg30
I0
sg31
(dp180
S'1'
(dp181
g66
S''
sg67
I0
sg68
F0
sg69
F90
sg70
F2.5
sg71
F0
sg72
I300
sg73
I1
sg42
S'14'
p182
sg43
S'1'
sg40
I300
sssg18
I0
sg33
I0
sg34
F10000
sg35
I0
sg36
(dp183
S'10'
p184
(dp185
g40
I50
sg41
S''
sg42
g74
sg43
g184
sg44
I36
ssS'1'
(dp186
g40
I50
sg41
S'1'
sg42
g79
sg43
S'1'
sg44
F0
ssS'3'
(dp187
g40
I50
sg41
S'1'
sg42
g79
sg43
S'3'
sg44
F0
ssS'2'
(dp188
g40
I50
sg41
S'1'
sg42
g79
sg43
S'2'
sg44
F0
ssS'5'
(dp189
g40
I50
sg41
S'1'
sg42
g79
sg43
S'5'
sg44
F0
ssS'4'
(dp190
g40
I50
sg41
S'1'
sg42
g79
sg43
S'4'
sg44
F0
ssS'7'
(dp191
g40
I50
sg41
S''
sg42
S'7'
sg43
S'7'
sg44
F0
ssS'6'
(dp192
g40
I50
sg41
S'1'
sg42
g79
sg43
S'6'
sg44
F0
ssS'9'
(dp193
g40
I50
sg41
S''
sg42
g74
sg43
S'9'
sg44
I36
ssS'8'
(dp194
g40
I50
sg41
S''
sg42
S'4'
sg43
S'8'
sg44
F0
sssg55
I0
sg56
F0
sg57
g62
sg19
F24
sg58
I0
sg59
I0
sg60
I50
sg61
I10
ssg88
(dp195
g11
I0
sg26
I0
sg27
I0
sg28
I0
sg29
S''
sg30
I0
sg31
(dp196
S'1'
(dp197
g66
S''
sg67
I0
sg68
F0
sg69
F90
sg70
F2.5
sg71
F0
sg72
I300
sg73
I1
sg42
g182
sg43
S'1'
sg40
I300
ssS'2'
(dp198
g66
S''
sg67
I0
sg68
F0
sg69
F0
sg70
F0.29999999999999999
sg71
F0
sg72
I200
sg73
I1
sg42
S'4'
sg43
S'2'
sg40
I200
sssg18
I0
sg33
I0
sg34
F10000
sg35
I0
sg36
(dp199
S'10'
p200
(dp201
g40
I50
sg41
S'2'
sg42
g79
sg43
g200
sg44
F0
ssS'1'
(dp202
g40
I50
sg41
S'1'
sg42
g79
sg43
S'1'
sg44
F0
ssS'3'
(dp203
g40
I50
sg41
S'1'
sg42
g79
sg43
S'3'
sg44
F0
ssS'2'
(dp204
g40
I50
sg41
S'1'
sg42
g79
sg43
S'2'
sg44
F0
ssS'5'
(dp205
g40
I50
sg41
S'1'
sg42
g79
sg43
S'5'
sg44
F0
ssS'4'
(dp206
g40
I50
sg41
S'1'
sg42
g79
sg43
S'4'
sg44
F0
ssS'7'
(dp207
g40
I50
sg41
S'2'
sg42
g79
sg43
S'7'
sg44
F0
ssS'6'
(dp208
g40
I50
sg41
S'1'
sg42
g79
sg43
S'6'
sg44
F0
ssS'9'
(dp209
g40
I50
sg41
S'2'
sg42
g79
sg43
S'9'
sg44
F0
ssS'8'
(dp210
g40
I50
sg41
S'2'
sg42
g79
sg43
S'8'
sg44
F0
sssg55
I0
sg56
I0
sg57
g88
sg19
I0
sg58
I0
sg59
I0
sg60
I0
sg61
I10
ssg105
(dp211
g11
I0
sg26
I0
sg27
I0
sg28
I0
sg29
S''
sg30
I0
sg31
(dp212
sg18
I0
sg33
I0
sg34
F10000
sg35
I0
sg36
(dp213
S'10'
p214
(dp215
g40
I50
sg41
S''
sg42
S'1'
sg43
g214
sg44
F0
ssS'1'
(dp216
g40
I50
sg41
S''
sg42
S'7'
sg43
S'1'
sg44
F0
ssS'3'
(dp217
g40
I50
sg41
S''
sg42
S'7'
sg43
S'3'
sg44
F0
ssS'2'
(dp218
g40
I50
sg41
S''
sg42
S'7'
sg43
S'2'
sg44
F0
ssS'5'
(dp219
g40
I50
sg41
S''
sg42
S'4'
sg43
S'5'
sg44
F0
ssS'4'
(dp220
g40
I50
sg41
S''
sg42
S'7'
sg43
S'4'
sg44
F0
ssS'7'
(dp221
g40
I50
sg41
S''
sg42
S'1'
sg43
S'7'
sg44
F0
ssS'6'
(dp222
g40
I50
sg41
S''
sg42
S'1'
sg43
S'6'
sg44
F0
ssS'9'
(dp223
g40
I50
sg41
S''
sg42
S'1'
sg43
S'9'
sg44
F0
ssS'8'
(dp224
g40
I50
sg41
S''
sg42
S'1'
sg43
S'8'
sg44
F0
sssg55
I0
sg56
F50
sg57
g105
sg19
F24
sg58
I0
sg59
I0
sg60
I200
sg61
I10
sssg120
F100
sg121
(lp225
S'5'
aS'4'
aS'7'
aS'6'
aS'9'
ag14
ag15
ag16
asg43
g161
sg123
(lp226
g125
ag126
ag127
ag128
ag129
ag130
ag131
ag132
ag133
ag134
ag135
ag136
ag137
ag138
ag139
ag140
asg141
I0
sg59
I0
sg142
F0
sg143
F2
sg71
F400
sg56
F100
sg144
S'214'
p227
sg146
S'0'
sg147
I-3
sg148
I-30
sg149
S'8'
sg150
(lp228
I0
aI0
aI0
aI0
asg152
I0
sg153
S'HCO9-Neutral-HCO-214'
p229
sg27
I0
sg69
F0
sg155
S'9'
sg157
F32
sg34
F50000
sg158
I6
sg159
F63.666666666666686
sg160
F-29.999999999999986
sg55
I0
ssS'215'
p230
(dp231
g11
I0
sg12
(lp232
S'5'
aS'4'
aS'7'
aS'6'
aS'9'
ag14
ag15
ag16
asg17
S''
sg18
I0
sg19
F46.079999999999998
sg20
F1000
sg21
S'8'
sg22
(dp233
g24
(dp234
g11
I0
sg26
I0
sg27
I0
sg28
I0
sg29
S''
sg30
I0
sg31
(dp235
sg18
I0
sg33
I0
sg34
F10000
sg35
I0
sg36
(dp236
g38
(dp237
g40
I50
sg41
S''
sg42
S'1'
sg43
g38
sg44
F0
ssS'1'
(dp238
g40
I50
sg41
S''
sg42
S'7'
sg43
S'1'
sg44
F0
ssS'3'
(dp239
g40
I50
sg41
S''
sg42
S'7'
sg43
S'3'
sg44
F0
ssS'2'
(dp240
g40
I50
sg41
S''
sg42
S'7'
sg43
S'2'
sg44
F0
ssS'5'
(dp241
g40
I50
sg41
S''
sg42
g49
sg43
S'5'
sg44
I36
ssS'4'
(dp242
g40
I50
sg41
S''
sg42
S'4'
sg43
S'4'
sg44
F0
ssS'7'
(dp243
g40
I50
sg41
S''
sg42
S'1'
sg43
S'7'
sg44
F0
ssS'6'
(dp244
g40
I50
sg41
S''
sg42
S'1'
sg43
S'6'
sg44
F0
ssS'9'
(dp245
g40
I50
sg41
S''
sg42
S'1'
sg43
S'9'
sg44
F0
ssS'8'
(dp246
g40
I50
sg41
S''
sg42
S'1'
sg43
S'8'
sg44
F0
sssg55
I0
sg56
F50
sg57
g24
sg19
F24
sg58
I0
sg59
I0
sg60
I150
sg61
I10
ssg62
(dp247
g11
I0
sg26
I0
sg27
I0
sg28
I0
sg29
S''
sg30
I0
sg31
(dp248
S'1'
(dp249
g66
S''
sg67
I0
sg68
F0
sg69
F270
sg70
F2.5
sg71
F0
sg72
I300
sg73
I1
sg42
g74
sg43
S'1'
sg40
I300
sssg18
I0
sg33
I0
sg34
F10000
sg35
I0
sg36
(dp250
g76
(dp251
g40
I50
sg41
S''
sg42
g49
sg43
g76
sg44
I36
ssS'1'
(dp252
g40
I50
sg41
S'1'
sg42
g79
sg43
S'1'
sg44
F0
ssS'3'
(dp253
g40
I50
sg41
S'1'
sg42
g79
sg43
S'3'
sg44
F0
ssS'2'
(dp254
g40
I50
sg41
S'1'
sg42
g79
sg43
S'2'
sg44
F0
ssS'5'
(dp255
g40
I50
sg41
S'1'
sg42
g79
sg43
S'5'
sg44
F0
ssS'4'
(dp256
g40
I50
sg41
S'1'
sg42
g79
sg43
S'4'
sg44
F0
ssS'7'
(dp257
g40
I50
sg41
S''
sg42
S'7'
sg43
S'7'
sg44
F0
ssS'6'
(dp258
g40
I50
sg41
S'1'
sg42
g79
sg43
S'6'
sg44
F0
ssS'9'
(dp259
g40
I50
sg41
S''
sg42
g49
sg43
S'9'
sg44
I36
ssS'8'
(dp260
g40
I50
sg41
S''
sg42
S'4'
sg43
S'8'
sg44
F0
sssg55
I0
sg56
F0
sg57
g62
sg19
F24
sg58
I0
sg59
I0
sg60
I50
sg61
I10
ssg88
(dp261
g11
I0
sg26
I0
sg27
I0
sg28
I0
sg29
S''
sg30
I0
sg31
(dp262
S'1'
(dp263
g66
S''
sg67
I0
sg68
F0
sg69
F270
sg70
F2.5
sg71
F0
sg72
I300
sg73
I1
sg42
g74
sg43
S'1'
sg40
I300
ssS'2'
(dp264
g66
S''
sg67
I0
sg68
F0
sg69
F0
sg70
F0.29999999999999999
sg71
F0
sg72
I200
sg73
I1
sg42
S'4'
sg43
S'2'
sg40
I200
sssg18
I0
sg33
I0
sg34
F10000
sg35
I0
sg36
(dp265
g94
(dp266
g40
I50
sg41
S'2'
sg42
g79
sg43
g94
sg44
F0
ssS'1'
(dp267
g40
I50
sg41
S'1'
sg42
g79
sg43
S'1'
sg44
F0
ssS'3'
(dp268
g40
I50
sg41
S'1'
sg42
g79
sg43
S'3'
sg44
F0
ssS'2'
(dp269
g40
I50
sg41
S'1'
sg42
g79
sg43
S'2'
sg44
F0
ssS'5'
(dp270
g40
I50
sg41
S'1'
sg42
g79
sg43
S'5'
sg44
F0
ssS'4'
(dp271
g40
I50
sg41
S'1'
sg42
g79
sg43
S'4'
sg44
F0
ssS'7'
(dp272
g40
I50
sg41
S'2'
sg42
g79
sg43
S'7'
sg44
F0
ssS'6'
(dp273
g40
I50
sg41
S'1'
sg42
g79
sg43
S'6'
sg44
F0
ssS'9'
(dp274
g40
I50
sg41
S'2'
sg42
g79
sg43
S'9'
sg44
F0
ssS'8'
(dp275
g40
I50
sg41
S'2'
sg42
g79
sg43
S'8'
sg44
F0
sssg55
I0
sg56
I0
sg57
g88
sg19
I0
sg58
I0
sg59
I0
sg60
I0
sg61
I10
ssg105
(dp276
g11
I0
sg26
I0
sg27
I0
sg28
I0
sg29
S''
sg30
I0
sg31
(dp277
sg18
I0
sg33
I0
sg34
F10000
sg35
I0
sg36
(dp278
g109
(dp279
g40
I50
sg41
S''
sg42
S'1'
sg43
g109
sg44
F0
ssS'1'
(dp280
g40
I50
sg41
S''
sg42
S'7'
sg43
S'1'
sg44
F0
ssS'3'
(dp281
g40
I50
sg41
S''
sg42
S'7'
sg43
S'3'
sg44
F0
ssS'2'
(dp282
g40
I50
sg41
S''
sg42
S'7'
sg43
S'2'
sg44
F0
ssS'5'
(dp283
g40
I50
sg41
S''
sg42
S'4'
sg43
S'5'
sg44
F0
ssS'4'
(dp284
g40
I50
sg41
S''
sg42
S'7'
sg43
S'4'
sg44
F0
ssS'7'
(dp285
g40
I50
sg41
S''
sg42
S'1'
sg43
S'7'
sg44
F0
ssS'6'
(dp286
g40
I50
sg41
S''
sg42
S'1'
sg43
S'6'
sg44
F0
ssS'9'
(dp287
g40
I50
sg41
S''
sg42
S'1'
sg43
S'9'
sg44
F0
ssS'8'
(dp288
g40
I50
sg41
S''
sg42
S'1'
sg43
S'8'
sg44
F0
sssg55
I0
sg56
F50
sg57
g105
sg19
F24
sg58
I0
sg59
I0
sg60
I200
sg61
I10
sssg120
F100
sg121
(lp289
S'5'
aS'4'
aS'7'
aS'6'
aS'9'
ag14
ag15
ag16
asg43
g230
sg123
(lp290
g125
ag126
ag127
ag128
ag129
ag130
ag131
ag132
ag133
ag134
ag135
ag136
ag137
ag138
ag139
ag140
asg141
I0
sg59
I0
sg142
F0
sg143
F2
sg71
F400
sg56
F100
sg144
S'215'
p291
sg146
S'0'
sg147
I-3
sg148
I-9
sg149
S'8'
sg150
(lp292
I0
aI0
aI0
aI0
asg152
I0
sg153
S'HCO10-Neutral-HCO-215'
p293
sg27
I0
sg69
F0
sg155
g156
sg157
F32
sg34
F50000
sg158
I6
sg159
F63.666666666666686
sg160
F-8.9999999999999858
sg55
I0
ssS'212'
p294
(dp295
g11
I0
sg12
(lp296
S'5'
aS'4'
aS'7'
aS'6'
aS'9'
ag14
ag15
ag16
asg17
S''
sg18
I0
sg19
F46.079999999999998
sg20
F1000
sg21
S'8'
sg22
(dp297
g24
(dp298
g11
I0
sg26
I0
sg27
I0
sg28
I0
sg29
S''
sg30
I0
sg31
(dp299
sg18
I0
sg33
I0
sg34
F10000
sg35
I0
sg36
(dp300
g38
(dp301
g40
I50
sg41
S''
sg42
S'1'
sg43
g38
sg44
F0
ssS'1'
(dp302
g40
I50
sg41
S''
sg42
S'7'
sg43
S'1'
sg44
F0
ssS'3'
(dp303
g40
I50
sg41
S''
sg42
S'7'
sg43
S'3'
sg44
F0
ssS'2'
(dp304
g40
I50
sg41
S''
sg42
S'7'
sg43
S'2'
sg44
F0
ssS'5'
(dp305
g40
I50
sg41
S''
sg42
g49
sg43
S'5'
sg44
I36
ssS'4'
(dp306
g40
I50
sg41
S''
sg42
S'4'
sg43
S'4'
sg44
F0
ssS'7'
(dp307
g40
I50
sg41
S''
sg42
S'1'
sg43
S'7'
sg44
F0
ssS'6'
(dp308
g40
I50
sg41
S''
sg42
S'1'
sg43
S'6'
sg44
F0
ssS'9'
(dp309
g40
I50
sg41
S''
sg42
S'1'
sg43
S'9'
sg44
F0
ssS'8'
(dp310
g40
I50
sg41
S''
sg42
S'1'
sg43
S'8'
sg44
F0
sssg55
I0
sg56
F50
sg57
g24
sg19
F24
sg58
I0
sg59
I0
sg60
I150
sg61
I10
ssg62
(dp311
g11
I0
sg26
I0
sg27
I0
sg28
I0
sg29
S''
sg30
I0
sg31
(dp312
S'1'
(dp313
g66
S''
sg67
I0
sg68
F0
sg69
F270
sg70
F2.5
sg71
F0
sg72
I300
sg73
I1
sg42
g74
sg43
S'1'
sg40
I300
sssg18
I0
sg33
I0
sg34
F10000
sg35
I0
sg36
(dp314
g76
(dp315
g40
I50
sg41
S''
sg42
g49
sg43
g76
sg44
I36
ssS'1'
(dp316
g40
I50
sg41
S'1'
sg42
g79
sg43
S'1'
sg44
F0
ssS'3'
(dp317
g40
I50
sg41
S'1'
sg42
g79
sg43
S'3'
sg44
F0
ssS'2'
(dp318
g40
I50
sg41
S'1'
sg42
g79
sg43
S'2'
sg44
F0
ssS'5'
(dp319
g40
I50
sg41
S'1'
sg42
g79
sg43
S'5'
sg44
F0
ssS'4'
(dp320
g40
I50
sg41
S'1'
sg42
g79
sg43
S'4'
sg44
F0
ssS'7'
(dp321
g40
I50
sg41
S''
sg42
S'7'
sg43
S'7'
sg44
F0
ssS'6'
(dp322
g40
I50
sg41
S'1'
sg42
g79
sg43
S'6'
sg44
F0
ssS'9'
(dp323
g40
I50
sg41
S''
sg42
g49
sg43
S'9'
sg44
I36
ssS'8'
(dp324
g40
I50
sg41
S''
sg42
S'4'
sg43
S'8'
sg44
F0
sssg55
I0
sg56
F0
sg57
g62
sg19
F24
sg58
I0
sg59
I0
sg60
I50
sg61
I10
ssg88
(dp325
g11
I0
sg26
I0
sg27
I0
sg28
I0
sg29
S''
sg30
I0
sg31
(dp326
S'1'
(dp327
g66
S''
sg67
I0
sg68
F0
sg69
F270
sg70
F2.5
sg71
F0
sg72
I300
sg73
I1
sg42
g74
sg43
S'1'
sg40
I300
ssS'2'
(dp328
g66
S''
sg67
I0
sg68
F0
sg69
F0
sg70
F0.29999999999999999
sg71
F0
sg72
I200
sg73
I1
sg42
S'4'
sg43
S'2'
sg40
I200
sssg18
I0
sg33
I0
sg34
F10000
sg35
I0
sg36
(dp329
g94
(dp330
g40
I50
sg41
S'2'
sg42
g79
sg43
g94
sg44
F0
ssS'1'
(dp331
g40
I50
sg41
S'1'
sg42
g79
sg43
S'1'
sg44
F0
ssS'3'
(dp332
g40
I50
sg41
S'1'
sg42
g79
sg43
S'3'
sg44
F0
ssS'2'
(dp333
g40
I50
sg41
S'1'
sg42
g79
sg43
S'2'
sg44
F0
ssS'5'
(dp334
g40
I50
sg41
S'1'
sg42
g79
sg43
S'5'
sg44
F0
ssS'4'
(dp335
g40
I50
sg41
S'1'
sg42
g79
sg43
S'4'
sg44
F0
ssS'7'
(dp336
g40
I50
sg41
S'2'
sg42
g79
sg43
S'7'
sg44
F0
ssS'6'
(dp337
g40
I50
sg41
S'1'
sg42
g79
sg43
S'6'
sg44
F0
ssS'9'
(dp338
g40
I50
sg41
S'2'
sg42
g79
sg43
S'9'
sg44
F0
ssS'8'
(dp339
g40
I50
sg41
S'2'
sg42
g79
sg43
S'8'
sg44
F0
sssg55
I0
sg56
I0
sg57
g88
sg19
I0
sg58
I0
sg59
I0
sg60
I0
sg61
I10
ssg105
(dp340
g11
I0
sg26
I0
sg27
I0
sg28
I0
sg29
S''
sg30
I0
sg31
(dp341
sg18
I0
sg33
I0
sg34
F10000
sg35
I0
sg36
(dp342
g109
(dp343
g40
I50
sg41
S''
sg42
S'1'
sg43
g109
sg44
F0
ssS'1'
(dp344
g40
I50
sg41
S''
sg42
S'7'
sg43
S'1'
sg44
F0
ssS'3'
(dp345
g40
I50
sg41
S''
sg42
S'7'
sg43
S'3'
sg44
F0
ssS'2'
(dp346
g40
I50
sg41
S''
sg42
S'7'
sg43
S'2'
sg44
F0
ssS'5'
(dp347
g40
I50
sg41
S''
sg42
S'4'
sg43
S'5'
sg44
F0
ssS'4'
(dp348
g40
I50
sg41
S''
sg42
S'7'
sg43
S'4'
sg44
F0
ssS'7'
(dp349
g40
I50
sg41
S''
sg42
S'1'
sg43
S'7'
sg44
F0
ssS'6'
(dp350
g40
I50
sg41
S''
sg42
S'1'
sg43
S'6'
sg44
F0
ssS'9'
(dp351
g40
I50
sg41
S''
sg42
S'1'
sg43
S'9'
sg44
F0
ssS'8'
(dp352
g40
I50
sg41
S''
sg42
S'1'
sg43
S'8'
sg44
F0
sssg55
I0
sg56
F50
sg57
g105
sg19
F24
sg58
I0
sg59
I0
sg60
I200
sg61
I10
sssg120
F100
sg121
(lp353
S'5'
aS'4'
aS'7'
aS'6'
aS'9'
ag14
ag15
ag16
asg43
g294
sg123
(lp354
g125
ag126
ag127
ag128
ag129
ag130
ag131
ag132
ag133
ag134
ag135
ag136
ag137
ag138
ag139
ag140
asg141
I0
sg59
I0
sg142
F0
sg143
F2
sg71
F400
sg56
F100
sg144
S'212'
p355
sg146
S'0'
sg147
I-28
sg148
I-22
sg149
S'8'
sg150
(lp356
I0
aI0
aI0
aI0
asg152
I0
sg153
S'HCO10-Neutral-HCO-212'
p357
sg27
I0
sg69
F0
sg155
g156
sg157
F32
sg34
F50000
sg158
I6
sg159
F38.666666666666686
sg160
F-21.999999999999986
sg55
I0
ssS'213'
p358
(dp359
g11
I0
sg12
(lp360
S'5'
aS'4'
aS'7'
aS'6'
aS'9'
ag14
ag15
ag16
asg17
S''
sg18
I0
sg19
F46.079999999999998
sg20
F1000
sg21
S'8'
sg22
(dp361
g24
(dp362
g11
I0
sg26
I0
sg27
I0
sg28
I0
sg29
S''
sg30
I0
sg31
(dp363
sg18
I0
sg33
I0
sg34
F10000
sg35
I0
sg36
(dp364
g168
(dp365
g40
I50
sg41
S''
sg42
S'1'
sg43
g168
sg44
F0
ssS'1'
(dp366
g40
I50
sg41
S''
sg42
S'7'
sg43
S'1'
sg44
F0
ssS'3'
(dp367
g40
I50
sg41
S''
sg42
S'7'
sg43
S'3'
sg44
F0
ssS'2'
(dp368
g40
I50
sg41
S''
sg42
S'7'
sg43
S'2'
sg44
F0
ssS'5'
(dp369
g40
I50
sg41
S''
sg42
g74
sg43
S'5'
sg44
I36
ssS'4'
(dp370
g40
I50
sg41
S''
sg42
S'4'
sg43
S'4'
sg44
F0
ssS'7'
(dp371
g40
I50
sg41
S''
sg42
S'1'
sg43
S'7'
sg44
F0
ssS'6'
(dp372
g40
I50
sg41
S''
sg42
S'1'
sg43
S'6'
sg44
F0
ssS'9'
(dp373
g40
I50
sg41
S''
sg42
S'1'
sg43
S'9'
sg44
F0
ssS'8'
(dp374
g40
I50
sg41
S''
sg42
S'1'
sg43
S'8'
sg44
F0
sssg55
I0
sg56
F50
sg57
g24
sg19
F24
sg58
I0
sg59
I0
sg60
I150
sg61
I10
ssg62
(dp375
g11
I0
sg26
I0
sg27
I0
sg28
I0
sg29
S''
sg30
I0
sg31
(dp376
S'1'
(dp377
g66
S''
sg67
I0
sg68
F0
sg69
F90
sg70
F2.5
sg71
F0
sg72
I300
sg73
I1
sg42
g182
sg43
S'1'
sg40
I300
sssg18
I0
sg33
I0
sg34
F10000
sg35
I0
sg36
(dp378
g184
(dp379
g40
I50
sg41
S''
sg42
g74
sg43
g184
sg44
I36
ssS'1'
(dp380
g40
I50
sg41
S'1'
sg42
g79
sg43
S'1'
sg44
F0
ssS'3'
(dp381
g40
I50
sg41
S'1'
sg42
g79
sg43
S'3'
sg44
F0
ssS'2'
(dp382
g40
I50
sg41
S'1'
sg42
g79
sg43
S'2'
sg44
F0
ssS'5'
(dp383
g40
I50
sg41
S'1'
sg42
g79
sg43
S'5'
sg44
F0
ssS'4'
(dp384
g40
I50
sg41
S'1'
sg42
g79
sg43
S'4'
sg44
F0
ssS'7'
(dp385
g40
I50
sg41
S''
sg42
S'7'
sg43
S'7'
sg44
F0
ssS'6'
(dp386
g40
I50
sg41
S'1'
sg42
g79
sg43
S'6'
sg44
F0
ssS'9'
(dp387
g40
I50
sg41
S''
sg42
g74
sg43
S'9'
sg44
I36
ssS'8'
(dp388
g40
I50
sg41
S''
sg42
S'4'
sg43
S'8'
sg44
F0
sssg55
I0
sg56
F0
sg57
g62
sg19
F24
sg58
I0
sg59
I0
sg60
I50
sg61
I10
ssg88
(dp389
g11
I0
sg26
I0
sg27
I0
sg28
I0
sg29
S''
sg30
I0
sg31
(dp390
S'1'
(dp391
g66
S''
sg67
I0
sg68
F0
sg69
F90
sg70
F2.5
sg71
F0
sg72
I300
sg73
I1
sg42
g182
sg43
S'1'
sg40
I300
ssS'2'
(dp392
g66
S''
sg67
I0
sg68
F0
sg69
F0
sg70
F0.29999999999999999
sg71
F0
sg72
I200
sg73
I1
sg42
S'4'
sg43
S'2'
sg40
I200
sssg18
I0
sg33
I0
sg34
F10000
sg35
I0
sg36
(dp393
g200
(dp394
g40
I50
sg41
S'2'
sg42
g79
sg43
g200
sg44
F0
ssS'1'
(dp395
g40
I50
sg41
S'1'
sg42
g79
sg43
S'1'
sg44
F0
ssS'3'
(dp396
g40
I50
sg41
S'1'
sg42
g79
sg43
S'3'
sg44
F0
ssS'2'
(dp397
g40
I50
sg41
S'1'
sg42
g79
sg43
S'2'
sg44
F0
ssS'5'
(dp398
g40
I50
sg41
S'1'
sg42
g79
sg43
S'5'
sg44
F0
ssS'4'
(dp399
g40
I50
sg41
S'1'
sg42
g79
sg43
S'4'
sg44
F0
ssS'7'
(dp400
g40
I50
sg41
S'2'
sg42
g79
sg43
S'7'
sg44
F0
ssS'6'
(dp401
g40
I50
sg41
S'1'
sg42
g79
sg43
S'6'
sg44
F0
ssS'9'
(dp402
g40
I50
sg41
S'2'
sg42
g79
sg43
S'9'
sg44
F0
ssS'8'
(dp403
g40
I50
sg41
S'2'
sg42
g79
sg43
S'8'
sg44
F0
sssg55
I0
sg56
I0
sg57
g88
sg19
I0
sg58
I0
sg59
I0
sg60
I0
sg61
I10
ssg105
(dp404
g11
I0
sg26
I0
sg27
I0
sg28
I0
sg29
S''
sg30
I0
sg31
(dp405
sg18
I0
sg33
I0
sg34
F10000
sg35
I0
sg36
(dp406
g214
(dp407
g40
I50
sg41
S''
sg42
S'1'
sg43
g214
sg44
F0
ssS'1'
(dp408
g40
I50
sg41
S''
sg42
S'7'
sg43
S'1'
sg44
F0
ssS'3'
(dp409
g40
I50
sg41
S''
sg42
S'7'
sg43
S'3'
sg44
F0
ssS'2'
(dp410
g40
I50
sg41
S''
sg42
S'7'
sg43
S'2'
sg44
F0
ssS'5'
(dp411
g40
I50
sg41
S''
sg42
S'4'
sg43
S'5'
sg44
F0
ssS'4'
(dp412
g40
I50
sg41
S''
sg42
S'7'
sg43
S'4'
sg44
F0
ssS'7'
(dp413
g40
I50
sg41
S''
sg42
S'1'
sg43
S'7'
sg44
F0
ssS'6'
(dp414
g40
I50
sg41
S''
sg42
S'1'
sg43
S'6'
sg44
F0
ssS'9'
(dp415
g40
I50
sg41
S''
sg42
S'1'
sg43
S'9'
sg44
F0
ssS'8'
(dp416
g40
I50
sg41
S''
sg42
S'1'
sg43
S'8'
sg44
F0
sssg55
I0
sg56
F50
sg57
g105
sg19
F24
sg58
I0
sg59
I0
sg60
I200
sg61
I10
sssg120
F100
sg121
(lp417
S'5'
aS'4'
aS'7'
aS'6'
aS'9'
ag14
ag15
ag16
asg43
g358
sg123
(lp418
g125
ag126
ag127
ag128
ag129
ag130
ag131
ag132
ag133
ag134
ag135
ag136
ag137
ag138
ag139
ag140
asg141
I0
sg59
I0
sg142
F0
sg143
F2
sg71
F400
sg56
F100
sg144
S'213'
p419
sg146
S'0'
sg147
I-22
sg148
I-17
sg149
S'8'
sg150
(lp420
I0
aI0
aI0
aI0
asg152
I0
sg153
S'HCO9-Neutral-HCO-213'
p421
sg27
I0
sg69
F0
sg155
S'9'
sg157
F32
sg34
F50000
sg158
I6
sg159
F44.666666666666686
sg160
F-16.999999999999986
sg55
I0
ssS'211'
p422
(dp423
g11
I0
sg12
(lp424
S'5'
aS'4'
aS'7'
aS'6'
aS'9'
ag14
ag15
ag16
asg17
S''
sg18
I0
sg19
F30.719999999999999
sg20
F1000
sg21
S'8'
sg22
(dp425
g24
(dp426
g11
I0
sg26
I0
sg27
I0
sg28
I0
sg29
S''
sg30
I0
sg31
(dp427
S'1'
(dp428
g66
S''
sg67
I0
sg68
F0
sg69
F0
sg70
F0.29999999999999999
sg71
F0
sg72
I200
sg73
I1
sg42
S'4'
sg43
S'1'
sg40
I200
sssg18
I0
sg33
I0
sg34
F10000
sg35
I0
sg36
(dp429
S'10'
p430
(dp431
g40
I50
sg41
S''
sg42
S'1'
sg43
g430
sg44
F0
ssS'1'
(dp432
g40
I50
sg41
S'1'
sg42
g79
sg43
S'1'
sg44
F0
ssS'3'
(dp433
g40
I50
sg41
S'1'
sg42
g79
sg43
S'3'
sg44
F0
ssS'2'
(dp434
g40
I50
sg41
S'1'
sg42
g79
sg43
S'2'
sg44
F0
ssS'5'
(dp435
g40
I50
sg41
S''
sg42
S'7'
sg43
S'5'
sg44
F0
ssS'4'
(dp436
g40
I50
sg41
S'1'
sg42
g79
sg43
S'4'
sg44
F0
ssS'7'
(dp437
g40
I50
sg41
S''
sg42
S'7'
sg43
S'7'
sg44
F0
ssS'6'
(dp438
g40
I50
sg41
S''
sg42
S'7'
sg43
S'6'
sg44
F0
ssS'9'
(dp439
g40
I50
sg41
S''
sg42
S'1'
sg43
S'9'
sg44
F0
ssS'8'
(dp440
g40
I50
sg41
S''
sg42
S'4'
sg43
S'8'
sg44
F0
sssg55
I0
sg56
F20
sg57
g24
sg19
F24
sg58
I0
sg59
I0
sg60
I150
sg61
I10
ssg62
(dp441
g11
I0
sg26
I0
sg27
I0
sg28
I0
sg29
S''
sg30
I0
sg31
(dp442
S'1'
(dp443
g66
S''
sg67
I0
sg68
F0
sg69
F270
sg70
F3
sg71
F0
sg72
I400
sg73
I1
sg42
S'36'
p444
sg43
S'1'
sg40
I400
sssg18
I0
sg33
I0
sg34
F10000
sg35
I0
sg36
(dp445
S'10'
p446
(dp447
g40
I50
sg41
S''
sg42
S'57'
p448
sg43
g446
sg44
I24
ssS'1'
(dp449
g40
I50
sg41
S'1'
sg42
g79
sg43
S'1'
sg44
F0
ssS'3'
(dp450
g40
I50
sg41
S'1'
sg42
g79
sg43
S'3'
sg44
F0
ssS'2'
(dp451
g40
I50
sg41
S'1'
sg42
g79
sg43
S'2'
sg44
F0
ssS'5'
(dp452
g40
I50
sg41
S'1'
sg42
g79
sg43
S'5'
sg44
F0
ssS'4'
(dp453
g40
I50
sg41
S'1'
sg42
g79
sg43
S'4'
sg44
F0
ssS'7'
(dp454
g40
I50
sg41
S'1'
sg42
g79
sg43
S'7'
sg44
F0
ssS'6'
(dp455
g40
I50
sg41
S'1'
sg42
g79
sg43
S'6'
sg44
F0
ssS'9'
(dp456
g40
I50
sg41
S''
sg42
g448
sg43
S'9'
sg44
I24
ssS'8'
(dp457
g40
I50
sg41
S'1'
sg42
g79
sg43
S'8'
sg44
F0
sssg55
I0
sg56
F0
sg57
g62
sg19
F0
sg58
I0
sg59
I0
sg60
I0
sg61
I10
ssg88
(dp458
g11
I0
sg26
I0
sg27
I0
sg28
I0
sg29
S''
sg30
I0
sg31
(dp459
S'1'
(dp460
g66
S''
sg67
I0
sg68
F0
sg69
F270
sg70
F3
sg71
F0
sg72
I400
sg73
I1
sg42
g444
sg43
S'1'
sg40
I400
sssg18
I0
sg33
I0
sg34
F10000
sg35
I0
sg36
(dp461
S'10'
p462
(dp463
g40
I50
sg41
S''
sg42
g448
sg43
g462
sg44
I24
ssS'1'
(dp464
g40
I50
sg41
S'1'
sg42
g79
sg43
S'1'
sg44
F0
ssS'3'
(dp465
g40
I50
sg41
S'1'
sg42
g79
sg43
S'3'
sg44
F0
ssS'2'
(dp466
g40
I50
sg41
S'1'
sg42
g79
sg43
S'2'
sg44
F0
ssS'5'
(dp467
g40
I50
sg41
S'1'
sg42
g79
sg43
S'5'
sg44
F0
ssS'4'
(dp468
g40
I50
sg41
S'1'
sg42
g79
sg43
S'4'
sg44
F0
ssS'7'
(dp469
g40
I50
sg41
S'1'
sg42
g79
sg43
S'7'
sg44
F0
ssS'6'
(dp470
g40
I50
sg41
S'1'
sg42
g79
sg43
S'6'
sg44
F0
ssS'9'
(dp471
g40
I50
sg41
S''
sg42
g448
sg43
S'9'
sg44
I24
ssS'8'
(dp472
g40
I50
sg41
S'1'
sg42
g79
sg43
S'8'
sg44
F0
sssg55
I0
sg56
F0
sg57
g88
sg19
F0
sg58
I0
sg59
I0
sg60
I0
sg61
I10
ssg105
(dp473
g11
I0
sg26
I0
sg27
I0
sg28
I0
sg29
S''
sg30
I0
sg31
(dp474
sg18
I0
sg33
I0
sg34
F10000
sg35
I0
sg36
(dp475
S'10'
p476
(dp477
g40
I50
sg41
S''
sg42
S'1'
sg43
g476
sg44
F0
ssS'1'
(dp478
g40
I50
sg41
S''
sg42
S'7'
sg43
S'1'
sg44
F0
ssS'3'
(dp479
g40
I50
sg41
S''
sg42
S'7'
sg43
S'3'
sg44
F0
ssS'2'
(dp480
g40
I50
sg41
S''
sg42
S'7'
sg43
S'2'
sg44
F0
ssS'5'
(dp481
g40
I50
sg41
S''
sg42
S'4'
sg43
S'5'
sg44
F0
ssS'4'
(dp482
g40
I50
sg41
S''
sg42
S'7'
sg43
S'4'
sg44
F0
ssS'7'
(dp483
g40
I50
sg41
S''
sg42
S'1'
sg43
S'7'
sg44
F0
ssS'6'
(dp484
g40
I50
sg41
S''
sg42
S'1'
sg43
S'6'
sg44
F0
ssS'9'
(dp485
g40
I50
sg41
S''
sg42
S'1'
sg43
S'9'
sg44
F0
ssS'8'
(dp486
g40
I50
sg41
S''
sg42
S'1'
sg43
S'8'
sg44
F0
sssg55
I0
sg56
F50
sg57
g105
sg19
F24
sg58
I0
sg59
I0
sg60
I200
sg61
I10
sssg120
F100
sg121
(lp487
S'5'
aS'4'
aS'7'
aS'6'
aS'9'
ag14
ag15
ag16
asg43
g422
sg123
(lp488
g125
ag126
ag127
ag128
ag129
ag130
ag131
ag132
ag133
ag134
ag135
ag136
ag137
ag138
ag139
ag140
asg141
I0
sg59
I0
sg142
F0
sg143
F1.3999999999999999
sg71
F350
sg56
F70
sg144
S'211'
p489
sg146
S'0'
sg147
I-14
sg148
I-24
sg149
S'8'
sg150
(lp490
I0
aI0
aI0
aI0
asg152
I0
sg153
S'HCO11-Neutral-HCO-211'
p491
sg27
I0
sg69
F0
sg155
S'11'
p492
sg157
F48
sg34
F50000
sg158
I6
sg159
F52.666666666666686
sg160
F-23.999999999999986
sg55
I0
ssg125
(dp493
S'repair'
p494
I0
sg12
(lp495
sS'takenOverByEmpire'
p496
S''
sS'radar'
p497
I0
sS'rotation'
p498
F45.18
sS'currentISP'
p499
F2000
sS'toSystem'
p500
S'8'
sg22
(dp501
g24
(dp502
g494
I0
sS'target'
p503
I0
sS'maxBattery'
p504
I0
sS'maxAP'
p505
I300
sS'typeAP'
p506
S'impact'
p507
sS'genSP'
p508
I1
sg31
(dp509
sg497
I0
sS'maxSP'
p510
I100
sS'mass'
p511
F3000
sS'currentAP'
p512
I300
sg36
(dp513
S'1'
(dp514
S'currentHP'
p515
I50
sS'weaponID'
p516
S''
sS'type'
p517
S'1'
sS'id'
p518
S'1'
sS'currentAmount'
p519
F0
ssS'3'
(dp520
g515
I50
sg516
S''
sg517
S'31'
p521
sg518
S'3'
sg519
F0
ssS'2'
(dp522
g515
I50
sg516
S''
sg517
S'25'
p523
sg518
S'2'
sg519
F0
sssS'maxAssault'
p524
I0
sS'thrust'
p525
F10
sS'position'
p526
g24
sg498
F0
sS'currentSP'
p527
I100
sS'jamming'
p528
I0
sS'maxPower'
p529
I0
sS'currentComps'
p530
I3
ssg62
(dp531
g494
I0
sg503
I0
sg504
I0
sg505
I300
sg506
g507
sg508
I1
sg31
(dp532
sg497
I0
sg510
I100
sg511
F4000
sg512
I300
sg36
(dp533
S'1'
(dp534
g515
I50
sg516
S''
sg517
S'1'
sg518
S'1'
sg519
F0
ssS'3'
(dp535
g515
I50
sg516
S''
sg517
g521
sg518
S'3'
sg519
F0
ssS'2'
(dp536
g515
I50
sg516
S''
sg517
g523
sg518
S'2'
sg519
F0
ssS'4'
(dp537
g515
I50
sg516
S''
sg517
S'4'
sg518
S'4'
sg519
F0
sssg524
I0
sg525
F10
sg526
g62
sg498
F24
sg527
I100
sg528
I0
sg529
I0
sg530
I4
ssg88
(dp538
g494
I0
sg503
I0
sg504
I0
sg505
I300
sg506
g507
sg508
I1
sg31
(dp539
sg497
I0
sg510
I100
sg511
F4000
sg512
I300
sg36
(dp540
S'1'
(dp541
g515
I50
sg516
S''
sg517
S'1'
sg518
S'1'
sg519
F0
ssS'3'
(dp542
g515
I50
sg516
S''
sg517
g521
sg518
S'3'
sg519
F0
ssS'2'
(dp543
g515
I50
sg516
S''
sg517
g523
sg518
S'2'
sg519
F0
ssS'4'
(dp544
g515
I50
sg516
S''
sg517
S'4'
sg518
S'4'
sg519
F0
sssg524
I0
sg525
F10
sg526
g88
sg498
F24
sg527
I100
sg528
I0
sg529
I0
sg530
I4
ssg105
(dp545
g494
I0
sg503
I0
sg504
I0
sg505
I300
sg506
g507
sg508
I1
sg31
(dp546
S'1'
(dp547
S'droneID'
p548
S''
sS'currentAmmo'
p549
I0
sS'currentLock'
p550
F0
sS'facing'
p551
F0
sS'maxLock'
p552
F0.29999999999999999
sS'currentPower'
p553
F0
sS'maxHP'
p554
I200
sS'operational'
p555
I1
sg517
S'4'
sg518
S'1'
sg515
I200
sssg497
I0
sg510
I100
sg511
F11000
sg512
I300
sg36
(dp556
S'11'
p557
(dp558
g515
I50
sg516
S'1'
sg517
g79
sg518
g557
sg519
F0
ssS'10'
p559
(dp560
g515
I50
sg516
S'1'
sg517
g79
sg518
g559
sg519
F0
ssS'1'
(dp561
g515
I50
sg516
S''
sg517
S'1'
sg518
S'1'
sg519
F0
ssS'3'
(dp562
g515
I50
sg516
S''
sg517
g521
sg518
S'3'
sg519
F0
ssS'2'
(dp563
g515
I50
sg516
S''
sg517
g523
sg518
S'2'
sg519
F0
ssS'5'
(dp564
g515
I50
sg516
S''
sg517
S'7'
sg518
S'5'
sg519
F0
ssS'4'
(dp565
g515
I50
sg516
S''
sg517
S'7'
sg518
S'4'
sg519
F0
ssS'7'
(dp566
g515
I50
sg516
S''
sg517
S'7'
sg518
S'7'
sg519
F0
ssS'6'
(dp567
g515
I50
sg516
S''
sg517
S'7'
sg518
S'6'
sg519
F0
ssS'9'
(dp568
g515
I50
sg516
S'1'
sg517
g79
sg518
S'9'
sg519
F0
ssS'8'
(dp569
g515
I50
sg516
S'1'
sg517
g79
sg518
S'8'
sg519
F0
sssg524
I0
sg525
F10
sg526
g105
sg498
F0
sg527
I100
sg528
I0
sg529
I200
sg530
I11
sssS'strength'
p570
F100
sg121
(lp571
sg518
g125
sg123
(lp572
g9
ag161
ag230
ag294
ag358
ag422
asS'isAssault'
p573
I0
sg528
I0
sS'currentBattery'
p574
F0
sS'accel'
p575
F1.1799999999999999
sg553
F200
sg525
F40
sS'captainID'
p576
S'88'
p577
sS'empireID'
p578
S'2'
sS'setX'
p579
I-21
sS'setY'
p580
I-4
sS'fromSystem'
p581
S'5'
sS'repairCost'
p582
(lp583
I0
aI0
aI0
aI0
asS'isTransport'
p584
I1
sS'name'
p585
S'LAS12-Marine Transport-88'
p586
sg504
I0
sg551
F0
sS'designID'
p587
S'12'
p588
sS'range'
p589
I99999
sg511
F34000
sS'systemGrid'
p590
I1
sS'posX'
p591
F-87.666666666666657
sS'posY'
p592
F-70.666666666666657
sg524
I0
ssg126
(dp593
g494
I0
sg12
(lp594
sg496
S''
sg497
I0
sg498
F45.18
sg499
F2000
sg500
S'8'
sg22
(dp595
g24
(dp596
g494
I0
sg503
I0
sg504
I0
sg505
I300
sg506
g507
sg508
I1
sg31
(dp597
sg497
I0
sg510
I100
sg511
F3000
sg512
I300
sg36
(dp598
S'1'
(dp599
g515
I50
sg516
S''
sg517
S'1'
sg518
S'1'
sg519
F0
ssS'3'
(dp600
g515
I50
sg516
S''
sg517
g521
sg518
S'3'
sg519
F0
ssS'2'
(dp601
g515
I50
sg516
S''
sg517
g523
sg518
S'2'
sg519
F0
sssg524
I0
sg525
F10
sg526
g24
sg498
F0
sg527
I100
sg528
I0
sg529
I0
sg530
I3
ssg62
(dp602
g494
I0
sg503
I0
sg504
I0
sg505
I300
sg506
g507
sg508
I1
sg31
(dp603
sg497
I0
sg510
I100
sg511
F4000
sg512
I300
sg36
(dp604
S'1'
(dp605
g515
I50
sg516
S''
sg517
S'1'
sg518
S'1'
sg519
F0
ssS'3'
(dp606
g515
I50
sg516
S''
sg517
g521
sg518
S'3'
sg519
F0
ssS'2'
(dp607
g515
I50
sg516
S''
sg517
g523
sg518
S'2'
sg519
F0
ssS'4'
(dp608
g515
I50
sg516
S''
sg517
S'4'
sg518
S'4'
sg519
F0
sssg524
I0
sg525
F10
sg526
g62
sg498
F24
sg527
I100
sg528
I0
sg529
I0
sg530
I4
ssg88
(dp609
g494
I0
sg503
I0
sg504
I0
sg505
I300
sg506
g507
sg508
I1
sg31
(dp610
sg497
I0
sg510
I100
sg511
F4000
sg512
I300
sg36
(dp611
S'1'
(dp612
g515
I50
sg516
S''
sg517
S'1'
sg518
S'1'
sg519
F0
ssS'3'
(dp613
g515
I50
sg516
S''
sg517
g521
sg518
S'3'
sg519
F0
ssS'2'
(dp614
g515
I50
sg516
S''
sg517
g523
sg518
S'2'
sg519
F0
ssS'4'
(dp615
g515
I50
sg516
S''
sg517
S'4'
sg518
S'4'
sg519
F0
sssg524
I0
sg525
F10
sg526
g88
sg498
F24
sg527
I100
sg528
I0
sg529
I0
sg530
I4
ssg105
(dp616
g494
I0
sg503
I0
sg504
I0
sg505
I300
sg506
g507
sg508
I1
sg31
(dp617
S'1'
(dp618
g548
S''
sg549
I0
sg550
F0
sg551
F0
sg552
F0.29999999999999999
sg553
F0
sg554
I200
sg555
I1
sg517
S'4'
sg518
S'1'
sg515
I200
sssg497
I0
sg510
I100
sg511
F11000
sg512
I300
sg36
(dp619
g557
(dp620
g515
I50
sg516
S'1'
sg517
g79
sg518
g557
sg519
F0
ssg559
(dp621
g515
I50
sg516
S'1'
sg517
g79
sg518
g559
sg519
F0
ssS'1'
(dp622
g515
I50
sg516
S''
sg517
S'1'
sg518
S'1'
sg519
F0
ssS'3'
(dp623
g515
I50
sg516
S''
sg517
g521
sg518
S'3'
sg519
F0
ssS'2'
(dp624
g515
I50
sg516
S''
sg517
g523
sg518
S'2'
sg519
F0
ssS'5'
(dp625
g515
I50
sg516
S''
sg517
S'7'
sg518
S'5'
sg519
F0
ssS'4'
(dp626
g515
I50
sg516
S''
sg517
S'7'
sg518
S'4'
sg519
F0
ssS'7'
(dp627
g515
I50
sg516
S''
sg517
S'7'
sg518
S'7'
sg519
F0
ssS'6'
(dp628
g515
I50
sg516
S''
sg517
S'7'
sg518
S'6'
sg519
F0
ssS'9'
(dp629
g515
I50
sg516
S'1'
sg517
g79
sg518
S'9'
sg519
F0
ssS'8'
(dp630
g515
I50
sg516
S'1'
sg517
g79
sg518
S'8'
sg519
F0
sssg524
I0
sg525
F10
sg526
g105
sg498
F0
sg527
I100
sg528
I0
sg529
I200
sg530
I11
sssg570
F100
sg121
(lp631
sg518
g126
sg123
(lp632
g9
ag161
ag230
ag294
ag358
ag422
asg573
I0
sg528
I0
sg574
F0
sg575
F1.1799999999999999
sg553
F200
sg525
F40
sg576
S'89'
p633
sg578
S'2'
sg579
I-9
sg580
I-10
sg581
S'5'
sg582
(lp634
I0
aI0
aI0
aI0
asg584
I1
sg585
S'LAS12-Marine Transport-89'
p635
sg504
I0
sg551
F0
sg587
g588
sg589
I99999
sg511
F34000
sg590
I1
sg591
F-75.666666666666657
sg592
F-76.666666666666657
sg524
I0
ssg127
(dp636
g494
I0
sg12
(lp637
sg496
S''
sg497
I0
sg498
F45.18
sg499
F2000
sg500
S'8'
sg22
(dp638
g24
(dp639
g494
I0
sg503
I0
sg504
I0
sg505
I300
sg506
g507
sg508
I1
sg31
(dp640
sg497
I0
sg510
I100
sg511
F3000
sg512
I300
sg36
(dp641
S'1'
(dp642
g515
I50
sg516
S''
sg517
S'1'
sg518
S'1'
sg519
F0
ssS'3'
(dp643
g515
I50
sg516
S''
sg517
g521
sg518
S'3'
sg519
F0
ssS'2'
(dp644
g515
I50
sg516
S''
sg517
g523
sg518
S'2'
sg519
F0
sssg524
I0
sg525
F10
sg526
g24
sg498
F0
sg527
I100
sg528
I0
sg529
I0
sg530
I3
ssg62
(dp645
g494
I0
sg503
I0
sg504
I0
sg505
I300
sg506
g507
sg508
I1
sg31
(dp646
sg497
I0
sg510
I100
sg511
F4000
sg512
I300
sg36
(dp647
S'1'
(dp648
g515
I50
sg516
S''
sg517
S'1'
sg518
S'1'
sg519
F0
ssS'3'
(dp649
g515
I50
sg516
S''
sg517
g521
sg518
S'3'
sg519
F0
ssS'2'
(dp650
g515
I50
sg516
S''
sg517
g523
sg518
S'2'
sg519
F0
ssS'4'
(dp651
g515
I50
sg516
S''
sg517
S'4'
sg518
S'4'
sg519
F0
sssg524
I0
sg525
F10
sg526
g62
sg498
F24
sg527
I100
sg528
I0
sg529
I0
sg530
I4
ssg88
(dp652
g494
I0
sg503
I0
sg504
I0
sg505
I300
sg506
g507
sg508
I1
sg31
(dp653
sg497
I0
sg510
I100
sg511
F4000
sg512
I300
sg36
(dp654
S'1'
(dp655
g515
I50
sg516
S''
sg517
S'1'
sg518
S'1'
sg519
F0
ssS'3'
(dp656
g515
I50
sg516
S''
sg517
g521
sg518
S'3'
sg519
F0
ssS'2'
(dp657
g515
I50
sg516
S''
sg517
g523
sg518
S'2'
sg519
F0
ssS'4'
(dp658
g515
I50
sg516
S''
sg517
S'4'
sg518
S'4'
sg519
F0
sssg524
I0
sg525
F10
sg526
g88
sg498
F24
sg527
I100
sg528
I0
sg529
I0
sg530
I4
ssg105
(dp659
g494
I0
sg503
I0
sg504
I0
sg505
I300
sg506
g507
sg508
I1
sg31
(dp660
S'1'
(dp661
g548
S''
sg549
I0
sg550
F0
sg551
F0
sg552
F0.29999999999999999
sg553
F0
sg554
I200
sg555
I1
sg517
S'4'
sg518
S'1'
sg515
I200
sssg497
I0
sg510
I100
sg511
F11000
sg512
I300
sg36
(dp662
g557
(dp663
g515
I50
sg516
S'1'
sg517
g79
sg518
g557
sg519
F0
ssg559
(dp664
g515
I50
sg516
S'1'
sg517
g79
sg518
g559
sg519
F0
ssS'1'
(dp665
g515
I50
sg516
S''
sg517
S'1'
sg518
S'1'
sg519
F0
ssS'3'
(dp666
g515
I50
sg516
S''
sg517
g521
sg518
S'3'
sg519
F0
ssS'2'
(dp667
g515
I50
sg516
S''
sg517
g523
sg518
S'2'
sg519
F0
ssS'5'
(dp668
g515
I50
sg516
S''
sg517
S'7'
sg518
S'5'
sg519
F0
ssS'4'
(dp669
g515
I50
sg516
S''
sg517
S'7'
sg518
S'4'
sg519
F0
ssS'7'
(dp670
g515
I50
sg516
S''
sg517
S'7'
sg518
S'7'
sg519
F0
ssS'6'
(dp671
g515
I50
sg516
S''
sg517
S'7'
sg518
S'6'
sg519
F0
ssS'9'
(dp672
g515
I50
sg516
S'1'
sg517
g79
sg518
S'9'
sg519
F0
ssS'8'
(dp673
g515
I50
sg516
S'1'
sg517
g79
sg518
S'8'
sg519
F0
sssg524
I0
sg525
F10
sg526
g105
sg498
F0
sg527
I100
sg528
I0
sg529
I200
sg530
I11
sssg570
F100
sg121
(lp674
sg518
g127
sg123
(lp675
g9
ag161
ag230
ag294
ag358
ag422
asg573
I0
sg528
I0
sg574
F0
sg575
F1.1799999999999999
sg553
F200
sg525
F40
sg576
S'87'
p676
sg578
S'2'
sg579
I-8
sg580
I-26
sg581
S'5'
sg582
(lp677
I0
aI0
aI0
aI0
asg584
I1
sg585
S'LAS12-Marine Transport-87'
p678
sg504
I0
sg551
F0
sg587
g588
sg589
I99999
sg511
F34000
sg590
I1
sg591
F-74.666666666666657
sg592
F-92.666666666666657
sg524
I0
ssg128
(dp679
g494
I0
sg12
(lp680
S'5'
asg496
S''
sg497
I0
sg498
F60
sg499
F3000
sg500
S'8'
sg22
(dp681
S'aft'
p682
(dp683
g494
I0
sg503
I0
sg504
I0
sg505
I0
sg506
S''
sg508
I0
sg31
(dp684
S'1'
(dp685
g548
S''
sg549
I0
sg550
F0
sg551
F0
sg552
F0.29999999999999999
sg553
F0
sg554
I400
sg555
I1
sg517
S'8'
sg518
S'1'
sg515
I400
sssg497
I0
sg510
I0
sg511
F13000
sg512
I0
sg36
(dp686
S'11'
p687
(dp688
g515
I100
sg516
S'1'
sg517
S'64'
p689
sg518
g687
sg519
F0
ssS'10'
p690
(dp691
g515
I100
sg516
S''
sg517
S'8'
sg518
g690
sg519
F0
ssS'13'
p692
(dp693
g515
I100
sg516
S'1'
sg517
g689
sg518
g692
sg519
F0
ssS'12'
p694
(dp695
g515
I100
sg516
S'1'
sg517
g689
sg518
g694
sg519
F0
ssS'14'
p696
(dp697
g515
I100
sg516
S'1'
sg517
g689
sg518
g696
sg519
F0
ssS'1'
(dp698
g515
I100
sg516
S''
sg517
S'2'
sg518
S'1'
sg519
F0
ssS'3'
(dp699
g515
I100
sg516
S''
sg517
S'2'
sg518
S'3'
sg519
F0
ssS'2'
(dp700
g515
I100
sg516
S''
sg517
S'2'
sg518
S'2'
sg519
F0
ssS'5'
(dp701
g515
I100
sg516
S''
sg517
S'5'
sg518
S'5'
sg519
F0
ssS'4'
(dp702
g515
I100
sg516
S''
sg517
S'5'
sg518
S'4'
sg519
F0
ssS'7'
(dp703
g515
I100
sg516
S''
sg517
S'8'
sg518
S'7'
sg519
F0
ssS'6'
(dp704
g515
I100
sg516
S''
sg517
S'8'
sg518
S'6'
sg519
F0
ssS'9'
(dp705
g515
I100
sg516
S''
sg517
S'8'
sg518
S'9'
sg519
F0
ssS'8'
(dp706
g515
I100
sg516
S''
sg517
S'8'
sg518
S'8'
sg519
F0
sssg524
I0
sg525
F48
sg526
g682
sg498
F90
sg527
I0
sg528
I0
sg529
I500
sg530
I14
ssS'star'
p707
(dp708
g494
I0
sg503
I0
sg504
I0
sg505
I1800
sg506
S'impact'
p709
sg508
I2
sg31
(dp710
S'1'
(dp711
g548
S''
sg549
I0
sg550
F0
sg551
F90
sg552
F3
sg553
F0
sg554
I800
sg555
I1
sg517
S'28'
p712
sg518
S'1'
sg515
I800
sssg497
I0
sg510
I200
sg511
F13400
sg512
I1800
sg36
(dp713
S'11'
p714
(dp715
g515
I100
sg516
S'1'
sg517
g689
sg518
g714
sg519
F0
ssS'10'
p716
(dp717
g515
I100
sg516
S'1'
sg517
g689
sg518
g716
sg519
F0
ssS'13'
p718
(dp719
g515
I100
sg516
S'1'
sg517
g689
sg518
g718
sg519
F0
ssS'12'
p720
(dp721
g515
I100
sg516
S'1'
sg517
g689
sg518
g720
sg519
F0
ssS'14'
p722
(dp723
g515
I100
sg516
S'1'
sg517
g689
sg518
g722
sg519
F0
ssS'1'
(dp724
g515
I100
sg516
S''
sg517
S'26'
p725
sg518
S'1'
sg519
F0
ssS'3'
(dp726
g515
I100
sg516
S''
sg517
S'32'
p727
sg518
S'3'
sg519
F0
ssS'2'
(dp728
g515
I100
sg516
S''
sg517
S'32'
p729
sg518
S'2'
sg519
F0
ssS'5'
(dp730
g515
I100
sg516
S''
sg517
S'49'
p731
sg518
S'5'
sg519
I16
ssS'4'
(dp732
g515
I100
sg516
S''
sg517
S'32'
p733
sg518
S'4'
sg519
F0
ssS'7'
(dp734
g515
I100
sg516
S'1'
sg517
g689
sg518
S'7'
sg519
F0
ssS'6'
(dp735
g515
I100
sg516
S''
sg517
S'49'
p736
sg518
S'6'
sg519
I16
ssS'9'
(dp737
g515
I100
sg516
S'1'
sg517
g689
sg518
S'9'
sg519
F0
ssS'8'
(dp738
g515
I100
sg516
S'1'
sg517
g689
sg518
S'8'
sg519
F0
sssg524
I0
sg525
F0
sg526
g707
sg498
F0
sg527
I200
sg528
I0
sg529
I0
sg530
I14
ssS'port'
p739
(dp740
g494
I0
sg503
I0
sg504
I0
sg505
I1800
sg506
g709
sg508
I2
sg31
(dp741
S'1'
(dp742
g548
S''
sg549
I0
sg550
F0
sg551
F270
sg552
F3
sg553
F0
sg554
I800
sg555
I1
sg517
S'28'
p743
sg518
S'1'
sg515
I800
sssg497
I0
sg510
I200
sg511
F13400
sg512
I1800
sg36
(dp744
S'11'
p745
(dp746
g515
I100
sg516
S'1'
sg517
g689
sg518
g745
sg519
F0
ssS'10'
p747
(dp748
g515
I100
sg516
S'1'
sg517
g689
sg518
g747
sg519
F0
ssS'13'
p749
(dp750
g515
I100
sg516
S'1'
sg517
g689
sg518
g749
sg519
F0
ssS'12'
p751
(dp752
g515
I100
sg516
S'1'
sg517
g689
sg518
g751
sg519
F0
ssS'14'
p753
(dp754
g515
I100
sg516
S'1'
sg517
g689
sg518
g753
sg519
F0
ssS'1'
(dp755
g515
I100
sg516
S''
sg517
S'26'
p756
sg518
S'1'
sg519
F0
ssS'3'
(dp757
g515
I100
sg516
S''
sg517
S'32'
p758
sg518
S'3'
sg519
F0
ssS'2'
(dp759
g515
I100
sg516
S''
sg517
S'32'
p760
sg518
S'2'
sg519
F0
ssS'5'
(dp761
g515
I100
sg516
S''
sg517
S'49'
p762
sg518
S'5'
sg519
I16
ssS'4'
(dp763
g515
I100
sg516
S''
sg517
S'32'
p764
sg518
S'4'
sg519
F0
ssS'7'
(dp765
g515
I100
sg516
S'1'
sg517
g689
sg518
S'7'
sg519
F0
ssS'6'
(dp766
g515
I100
sg516
S''
sg517
S'49'
p767
sg518
S'6'
sg519
I16
ssS'9'
(dp768
g515
I100
sg516
S'1'
sg517
g689
sg518
S'9'
sg519
F0
ssS'8'
(dp769
g515
I100
sg516
S'1'
sg517
g689
sg518
S'8'
sg519
F0
sssg524
I0
sg525
F0
sg526
g739
sg498
F0
sg527
I200
sg528
I0
sg529
I0
sg530
I14
ssS'fore'
p770
(dp771
g494
I0
sg503
I0
sg504
I0
sg505
I600
sg506
g709
sg508
I0
sg31
(dp772
S'1'
(dp773
g548
S''
sg549
I0
sg550
F0
sg551
F180
sg552
F0.29999999999999999
sg553
F0
sg554
I400
sg555
I1
sg517
S'8'
sg518
S'1'
sg515
I400
sssg497
I0
sg510
I0
sg511
F13000
sg512
I600
sg36
(dp774
S'11'
p775
(dp776
g515
I100
sg516
S'1'
sg517
g689
sg518
g775
sg519
F0
ssS'10'
p777
(dp778
g515
I100
sg516
S''
sg517
S'8'
sg518
g777
sg519
F0
ssS'13'
p779
(dp780
g515
I100
sg516
S'1'
sg517
g689
sg518
g779
sg519
F0
ssS'12'
p781
(dp782
g515
I100
sg516
S'1'
sg517
g689
sg518
g781
sg519
F0
ssS'14'
p783
(dp784
g515
I100
sg516
S'1'
sg517
g689
sg518
g783
sg519
F0
ssS'1'
(dp785
g515
I100
sg516
S''
sg517
S'2'
sg518
S'1'
sg519
F0
ssS'3'
(dp786
g515
I100
sg516
S''
sg517
S'2'
sg518
S'3'
sg519
F0
ssS'2'
(dp787
g515
I100
sg516
S''
sg517
S'2'
sg518
S'2'
sg519
F0
ssS'5'
(dp788
g515
I100
sg516
S''
sg517
S'2'
sg518
S'5'
sg519
F0
ssS'4'
(dp789
g515
I100
sg516
S''
sg517
S'2'
sg518
S'4'
sg519
F0
ssS'7'
(dp790
g515
I100
sg516
S''
sg517
S'32'
p791
sg518
S'7'
sg519
F0
ssS'6'
(dp792
g515
I100
sg516
S''
sg517
S'2'
sg518
S'6'
sg519
F0
ssS'9'
(dp793
g515
I100
sg516
S''
sg517
S'8'
sg518
S'9'
sg519
F0
ssS'8'
(dp794
g515
I100
sg516
S''
sg517
S'5'
sg518
S'8'
sg519
F0
sssg524
I0
sg525
F96
sg526
g770
sg498
F45
sg527
I0
sg528
I0
sg529
I200
sg530
I14
sssg570
F100
sg121
(lp795
S'1'
aS'3'
aS'2'
aS'4'
aS'7'
aS'6'
aS'9'
aS'8'
asg518
g128
sg123
(lp796
g9
ag161
ag230
ag294
ag358
ag422
asg573
I0
sg528
I0
sg574
F0
sg575
F2.1600000000000001
sg553
F700
sg525
F144
sg576
S'428'
p797
sg578
S'2'
sg579
I-15
sg580
I-23
sg581
S'5'
sg582
(lp798
I0
aI0
aI0
aI0
asg584
I0
sg585
S'BFR17-BONES-428'
p799
sg504
I0
sg551
F0
sg587
S'17'
p800
sg589
F36
sg511
F66800
sg590
I1
sg591
F-81.666666666666657
sg592
F-89.666666666666657
sg524
I0
ssg129
(dp801
g494
I0
sg12
(lp802
S'5'
asg496
S''
sg497
I0
sg498
F60
sg499
F3000
sg500
S'8'
sg22
(dp803
g682
(dp804
g494
I0
sg503
I0
sg504
I0
sg505
I0
sg506
S''
sg508
I0
sg31
(dp805
S'1'
(dp806
g548
S''
sg549
I0
sg550
F0
sg551
F0
sg552
F0.29999999999999999
sg553
F0
sg554
I400
sg555
I1
sg517
S'8'
sg518
S'1'
sg515
I400
sssg497
I0
sg510
I0
sg511
F13000
sg512
I0
sg36
(dp807
g687
(dp808
g515
I100
sg516
S'1'
sg517
g689
sg518
g687
sg519
F0
ssg690
(dp809
g515
I100
sg516
S''
sg517
S'8'
sg518
g690
sg519
F0
ssg692
(dp810
g515
I100
sg516
S'1'
sg517
g689
sg518
g692
sg519
F0
ssg694
(dp811
g515
I100
sg516
S'1'
sg517
g689
sg518
g694
sg519
F0
ssg696
(dp812
g515
I100
sg516
S'1'
sg517
g689
sg518
g696
sg519
F0
ssS'1'
(dp813
g515
I100
sg516
S''
sg517
S'2'
sg518
S'1'
sg519
F0
ssS'3'
(dp814
g515
I100
sg516
S''
sg517
S'2'
sg518
S'3'
sg519
F0
ssS'2'
(dp815
g515
I100
sg516
S''
sg517
S'2'
sg518
S'2'
sg519
F0
ssS'5'
(dp816
g515
I100
sg516
S''
sg517
S'5'
sg518
S'5'
sg519
F0
ssS'4'
(dp817
g515
I100
sg516
S''
sg517
S'5'
sg518
S'4'
sg519
F0
ssS'7'
(dp818
g515
I100
sg516
S''
sg517
S'8'
sg518
S'7'
sg519
F0
ssS'6'
(dp819
g515
I100
sg516
S''
sg517
S'8'
sg518
S'6'
sg519
F0
ssS'9'
(dp820
g515
I100
sg516
S''
sg517
S'8'
sg518
S'9'
sg519
F0
ssS'8'
(dp821
g515
I100
sg516
S''
sg517
S'8'
sg518
S'8'
sg519
F0
sssg524
I0
sg525
F48
sg526
g682
sg498
F90
sg527
I0
sg528
I0
sg529
I500
sg530
I14
ssg707
(dp822
g494
I0
sg503
I0
sg504
I0
sg505
I1800
sg506
g709
sg508
I2
sg31
(dp823
S'1'
(dp824
g548
S''
sg549
I0
sg550
F0
sg551
F90
sg552
F3
sg553
F0
sg554
I800
sg555
I1
sg517
g712
sg518
S'1'
sg515
I800
sssg497
I0
sg510
I200
sg511
F13400
sg512
I1800
sg36
(dp825
g714
(dp826
g515
I100
sg516
S'1'
sg517
g689
sg518
g714
sg519
F0
ssg716
(dp827
g515
I100
sg516
S'1'
sg517
g689
sg518
g716
sg519
F0
ssg718
(dp828
g515
I100
sg516
S'1'
sg517
g689
sg518
g718
sg519
F0
ssg720
(dp829
g515
I100
sg516
S'1'
sg517
g689
sg518
g720
sg519
F0
ssg722
(dp830
g515
I100
sg516
S'1'
sg517
g689
sg518
g722
sg519
F0
ssS'1'
(dp831
g515
I100
sg516
S''
sg517
g725
sg518
S'1'
sg519
F0
ssS'3'
(dp832
g515
I100
sg516
S''
sg517
g727
sg518
S'3'
sg519
F0
ssS'2'
(dp833
g515
I100
sg516
S''
sg517
g729
sg518
S'2'
sg519
F0
ssS'5'
(dp834
g515
I100
sg516
S''
sg517
g731
sg518
S'5'
sg519
I16
ssS'4'
(dp835
g515
I100
sg516
S''
sg517
g733
sg518
S'4'
sg519
F0
ssS'7'
(dp836
g515
I100
sg516
S'1'
sg517
g689
sg518
S'7'
sg519
F0
ssS'6'
(dp837
g515
I100
sg516
S''
sg517
g736
sg518
S'6'
sg519
I16
ssS'9'
(dp838
g515
I100
sg516
S'1'
sg517
g689
sg518
S'9'
sg519
F0
ssS'8'
(dp839
g515
I100
sg516
S'1'
sg517
g689
sg518
S'8'
sg519
F0
sssg524
I0
sg525
F0
sg526
g707
sg498
F0
sg527
I200
sg528
I0
sg529
I0
sg530
I14
ssg739
(dp840
g494
I0
sg503
I0
sg504
I0
sg505
I1800
sg506
g709
sg508
I2
sg31
(dp841
S'1'
(dp842
g548
S''
sg549
I0
sg550
F0
sg551
F270
sg552
F3
sg553
F0
sg554
I800
sg555
I1
sg517
g743
sg518
S'1'
sg515
I800
sssg497
I0
sg510
I200
sg511
F13400
sg512
I1800
sg36
(dp843
g745
(dp844
g515
I100
sg516
S'1'
sg517
g689
sg518
g745
sg519
F0
ssg747
(dp845
g515
I100
sg516
S'1'
sg517
g689
sg518
g747
sg519
F0
ssg749
(dp846
g515
I100
sg516
S'1'
sg517
g689
sg518
g749
sg519
F0
ssg751
(dp847
g515
I100
sg516
S'1'
sg517
g689
sg518
g751
sg519
F0
ssg753
(dp848
g515
I100
sg516
S'1'
sg517
g689
sg518
g753
sg519
F0
ssS'1'
(dp849
g515
I100
sg516
S''
sg517
g756
sg518
S'1'
sg519
F0
ssS'3'
(dp850
g515
I100
sg516
S''
sg517
g758
sg518
S'3'
sg519
F0
ssS'2'
(dp851
g515
I100
sg516
S''
sg517
g760
sg518
S'2'
sg519
F0
ssS'5'
(dp852
g515
I100
sg516
S''
sg517
g762
sg518
S'5'
sg519
I16
ssS'4'
(dp853
g515
I100
sg516
S''
sg517
g764
sg518
S'4'
sg519
F0
ssS'7'
(dp854
g515
I100
sg516
S'1'
sg517
g689
sg518
S'7'
sg519
F0
ssS'6'
(dp855
g515
I100
sg516
S''
sg517
g767
sg518
S'6'
sg519
I16
ssS'9'
(dp856
g515
I100
sg516
S'1'
sg517
g689
sg518
S'9'
sg519
F0
ssS'8'
(dp857
g515
I100
sg516
S'1'
sg517
g689
sg518
S'8'
sg519
F0
sssg524
I0
sg525
F0
sg526
g739
sg498
F0
sg527
I200
sg528
I0
sg529
I0
sg530
I14
ssg770
(dp858
g494
I0
sg503
I0
sg504
I0
sg505
I600
sg506
g709
sg508
I0
sg31
(dp859
S'1'
(dp860
g548
S''
sg549
I0
sg550
F0
sg551
F180
sg552
F0.29999999999999999
sg553
F0
sg554
I400
sg555
I1
sg517
S'8'
sg518
S'1'
sg515
I400
sssg497
I0
sg510
I0
sg511
F13000
sg512
I600
sg36
(dp861
g775
(dp862
g515
I100
sg516
S'1'
sg517
g689
sg518
g775
sg519
F0
ssg777
(dp863
g515
I100
sg516
S''
sg517
S'8'
sg518
g777
sg519
F0
ssg779
(dp864
g515
I100
sg516
S'1'
sg517
g689
sg518
g779
sg519
F0
ssg781
(dp865
g515
I100
sg516
S'1'
sg517
g689
sg518
g781
sg519
F0
ssg783
(dp866
g515
I100
sg516
S'1'
sg517
g689
sg518
g783
sg519
F0
ssS'1'
(dp867
g515
I100
sg516
S''
sg517
S'2'
sg518
S'1'
sg519
F0
ssS'3'
(dp868
g515
I100
sg516
S''
sg517
S'2'
sg518
S'3'
sg519
F0
ssS'2'
(dp869
g515
I100
sg516
S''
sg517
S'2'
sg518
S'2'
sg519
F0
ssS'5'
(dp870
g515
I100
sg516
S''
sg517
S'2'
sg518
S'5'
sg519
F0
ssS'4'
(dp871
g515
I100
sg516
S''
sg517
S'2'
sg518
S'4'
sg519
F0
ssS'7'
(dp872
g515
I100
sg516
S''
sg517
g791
sg518
S'7'
sg519
F0
ssS'6'
(dp873
g515
I100
sg516
S''
sg517
S'2'
sg518
S'6'
sg519
F0
ssS'9'
(dp874
g515
I100
sg516
S''
sg517
S'8'
sg518
S'9'
sg519
F0
ssS'8'
(dp875
g515
I100
sg516
S''
sg517
S'5'
sg518
S'8'
sg519
F0
sssg524
I0
sg525
F96
sg526
g770
sg498
F45
sg527
I0
sg528
I0
sg529
I200
sg530
I14
sssg570
F100
sg121
(lp876
S'1'
aS'3'
aS'2'
aS'4'
aS'7'
aS'6'
aS'9'
aS'8'
asg518
g129
sg123
(lp877
g9
ag161
ag230
ag294
ag358
ag422
asg573
I0
sg528
I0
sg574
F0
sg575
F2.1600000000000001
sg553
F700
sg525
F144
sg576
S'427'
p878
sg578
S'2'
sg579
I-28
sg580
I-3
sg581
S'5'
sg582
(lp879
I0
aI0
aI0
aI0
asg584
I0
sg585
S'BFR17-BONES-427'
p880
sg504
I0
sg551
F0
sg587
g800
sg589
F36
sg511
F66800
sg590
I1
sg591
F-94.666666666666657
sg592
F-69.666666666666657
sg524
I0
ssg130
(dp881
g494
I0
sg12
(lp882
S'5'
asg496
S''
sg497
I0
sg498
F60
sg499
F1000
sg500
S'8'
sg22
(dp883
S'aft'
p884
(dp885
g494
I0
sg503
I0
sg504
I0
sg505
I0
sg506
S''
sg508
I0
sg31
(dp886
S'1'
(dp887
g548
S''
sg549
I0
sg550
F0
sg551
F0
sg552
F0.29999999999999999
sg553
F0
sg554
I400
sg555
I1
sg517
S'8'
sg518
S'1'
sg515
I400
sssg497
I0
sg510
I0
sg511
F9400
sg512
I0
sg36
(dp888
S'10'
p889
(dp890
g515
I100
sg516
S'1'
sg517
g689
sg518
g889
sg519
F0
ssS'1'
(dp891
g515
I100
sg516
S''
sg517
S'2'
sg518
S'1'
sg519
F0
ssS'3'
(dp892
g515
I100
sg516
S''
sg517
S'5'
sg518
S'3'
sg519
F0
ssS'2'
(dp893
g515
I100
sg516
S''
sg517
S'2'
sg518
S'2'
sg519
F0
ssS'5'
(dp894
g515
I100
sg516
S''
sg517
S'8'
sg518
S'5'
sg519
F0
ssS'4'
(dp895
g515
I100
sg516
S''
sg517
S'8'
sg518
S'4'
sg519
F0
ssS'7'
(dp896
g515
I100
sg516
S'1'
sg517
g689
sg518
S'7'
sg519
F0
ssS'6'
(dp897
g515
I100
sg516
S''
sg517
S'8'
sg518
S'6'
sg519
F0
ssS'9'
(dp898
g515
I100
sg516
S'1'
sg517
g689
sg518
S'9'
sg519
F0
ssS'8'
(dp899
g515
I100
sg516
S'1'
sg517
g689
sg518
S'8'
sg519
F0
sssg524
I0
sg525
F32
sg526
g884
sg498
F45
sg527
I0
sg528
I0
sg529
I300
sg530
I10
ssS'star'
p900
(dp901
g494
I0
sg503
I0
sg504
I0
sg505
I0
sg506
S''
sg508
I0
sg31
(dp902
S'1'
(dp903
g548
S''
sg549
I0
sg550
F0
sg551
F90
sg552
F3
sg553
F0
sg554
I800
sg555
I1
sg517
S'28'
p904
sg518
S'1'
sg515
I800
sssg497
I0
sg510
I0
sg511
F9800
sg512
I0
sg36
(dp905
S'10'
p906
(dp907
g515
I100
sg516
S'1'
sg517
g689
sg518
g906
sg519
F0
ssS'1'
(dp908
g515
I100
sg516
S''
sg517
S'49'
p909
sg518
S'1'
sg519
I16
ssS'3'
(dp910
g515
I100
sg516
S'1'
sg517
g689
sg518
S'3'
sg519
F0
ssS'2'
(dp911
g515
I100
sg516
S''
sg517
S'49'
p912
sg518
S'2'
sg519
I16
ssS'5'
(dp913
g515
I100
sg516
S'1'
sg517
g689
sg518
S'5'
sg519
F0
ssS'4'
(dp914
g515
I100
sg516
S'1'
sg517
g689
sg518
S'4'
sg519
F0
ssS'7'
(dp915
g515
I100
sg516
S'1'
sg517
g689
sg518
S'7'
sg519
F0
ssS'6'
(dp916
g515
I100
sg516
S'1'
sg517
g689
sg518
S'6'
sg519
F0
ssS'9'
(dp917
g515
I100
sg516
S'1'
sg517
g689
sg518
S'9'
sg519
F0
ssS'8'
(dp918
g515
I100
sg516
S'1'
sg517
g689
sg518
S'8'
sg519
F0
sssg524
I0
sg525
F0
sg526
g900
sg498
F0
sg527
I0
sg528
I0
sg529
I0
sg530
I10
ssS'port'
p919
(dp920
g494
I0
sg503
I0
sg504
I0
sg505
I0
sg506
S''
sg508
I0
sg31
(dp921
S'1'
(dp922
g548
S''
sg549
I0
sg550
F0
sg551
F270
sg552
F3
sg553
F0
sg554
I800
sg555
I1
sg517
S'28'
p923
sg518
S'1'
sg515
I800
sssg497
I0
sg510
I0
sg511
F9800
sg512
I0
sg36
(dp924
S'10'
p925
(dp926
g515
I100
sg516
S'1'
sg517
g689
sg518
g925
sg519
F0
ssS'1'
(dp927
g515
I100
sg516
S''
sg517
S'49'
p928
sg518
S'1'
sg519
I16
ssS'3'
(dp929
g515
I100
sg516
S'1'
sg517
g689
sg518
S'3'
sg519
F0
ssS'2'
(dp930
g515
I100
sg516
S''
sg517
S'49'
p931
sg518
S'2'
sg519
I16
ssS'5'
(dp932
g515
I100
sg516
S'1'
sg517
g689
sg518
S'5'
sg519
F0
ssS'4'
(dp933
g515
I100
sg516
S'1'
sg517
g689
sg518
S'4'
sg519
F0
ssS'7'
(dp934
g515
I100
sg516
S'1'
sg517
g689
sg518
S'7'
sg519
F0
ssS'6'
(dp935
g515
I100
sg516
S'1'
sg517
g689
sg518
S'6'
sg519
F0
ssS'9'
(dp936
g515
I100
sg516
S'1'
sg517
g689
sg518
S'9'
sg519
F0
ssS'8'
(dp937
g515
I100
sg516
S'1'
sg517
g689
sg518
S'8'
sg519
F0
sssg524
I0
sg525
F0
sg526
g919
sg498
F0
sg527
I0
sg528
I0
sg529
I0
sg530
I10
ssS'fore'
p938
(dp939
g494
I0
sg503
I0
sg504
I0
sg505
I0
sg506
S''
sg508
I0
sg31
(dp940
sg497
I0
sg510
I0
sg511
F9000
sg512
I0
sg36
(dp941
S'10'
p942
(dp943
g515
I100
sg516
S''
sg517
S'8'
sg518
g942
sg519
F0
ssS'1'
(dp944
g515
I100
sg516
S''
sg517
S'2'
sg518
S'1'
sg519
F0
ssS'3'
(dp945
g515
I100
sg516
S''
sg517
S'2'
sg518
S'3'
sg519
F0
ssS'2'
(dp946
g515
I100
sg516
S''
sg517
S'2'
sg518
S'2'
sg519
F0
ssS'5'
(dp947
g515
I100
sg516
S''
sg517
S'2'
sg518
S'5'
sg519
F0
ssS'4'
(dp948
g515
I100
sg516
S''
sg517
S'2'
sg518
S'4'
sg519
F0
ssS'7'
(dp949
g515
I100
sg516
S''
sg517
S'8'
sg518
S'7'
sg519
F0
ssS'6'
(dp950
g515
I100
sg516
S''
sg517
S'5'
sg518
S'6'
sg519
F0
ssS'9'
(dp951
g515
I100
sg516
S''
sg517
S'8'
sg518
S'9'
sg519
F0
ssS'8'
(dp952
g515
I100
sg516
S''
sg517
S'8'
sg518
S'8'
sg519
F0
sssg524
I0
sg525
F80
sg526
g938
sg498
F45
sg527
I0
sg528
I0
sg529
I400
sg530
I10
sssg570
F100
sg121
(lp953
S'1'
aS'3'
aS'2'
aS'4'
aS'7'
aS'6'
aS'9'
aS'8'
asg518
g130
sg123
(lp954
g9
ag161
ag230
ag294
ag358
ag422
asg573
I0
sg528
I0
sg574
F0
sg575
F2.3300000000000001
sg553
F700
sg525
F112
sg576
S'448'
p955
sg578
S'2'
sg579
I-30
sg580
I-22
sg581
S'5'
sg582
(lp956
I0
aI0
aI0
aI0
asg584
I0
sg585
S'HCO18-SCOTTY-448'
p957
sg504
I0
sg551
F0
sg587
S'18'
p958
sg589
F36
sg511
F48000
sg590
I1
sg591
F-96.666666666666657
sg592
F-88.666666666666657
sg524
I0
ssg131
(dp959
g494
I0
sg12
(lp960
S'5'
asg496
S''
sg497
I0
sg498
F37.700000000000003
sg499
F4000
sg500
S'8'
sg22
(dp961
S'aft'
p962
(dp963
g494
I0
sg503
I0
sg504
I0
sg505
I600
sg506
g709
sg508
I0
sg31
(dp964
S'1'
(dp965
g548
S''
sg549
I0
sg550
F0
sg551
F270
sg552
F3
sg553
F0
sg554
I800
sg555
I1
sg517
S'39'
p966
sg518
S'1'
sg515
I800
sssg497
I0
sg510
I0
sg511
F15200
sg512
I600
sg36
(dp967
S'11'
p968
(dp969
g515
I100
sg516
S'1'
sg517
g689
sg518
g968
sg519
F0
ssS'10'
p970
(dp971
g515
I100
sg516
S'1'
sg517
g689
sg518
g970
sg519
F0
ssS'13'
p972
(dp973
g515
I100
sg516
S'1'
sg517
g689
sg518
g972
sg519
F0
ssS'12'
p974
(dp975
g515
I100
sg516
S'1'
sg517
g689
sg518
g974
sg519
F0
ssS'15'
p976
(dp977
g515
I100
sg516
S'1'
sg517
g689
sg518
g976
sg519
F0
ssS'14'
p978
(dp979
g515
I100
sg516
S'1'
sg517
g689
sg518
g978
sg519
F0
ssS'16'
p980
(dp981
g515
I100
sg516
S'1'
sg517
g689
sg518
g980
sg519
F0
ssS'1'
(dp982
g515
I100
sg516
S''
sg517
S'2'
sg518
S'1'
sg519
F0
ssS'3'
(dp983
g515
I100
sg516
S''
sg517
S'60'
p984
sg518
S'3'
sg519
I24
ssS'2'
(dp985
g515
I100
sg516
S''
sg517
S'32'
p986
sg518
S'2'
sg519
F0
ssS'5'
(dp987
g515
I100
sg516
S''
sg517
S'8'
sg518
S'5'
sg519
F0
ssS'4'
(dp988
g515
I100
sg516
S''
sg517
S'60'
p989
sg518
S'4'
sg519
I24
ssS'7'
(dp990
g515
I100
sg516
S''
sg517
S'8'
sg518
S'7'
sg519
F0
ssS'6'
(dp991
g515
I100
sg516
S''
sg517
S'8'
sg518
S'6'
sg519
F0
ssS'9'
(dp992
g515
I100
sg516
S'1'
sg517
g689
sg518
S'9'
sg519
F0
ssS'8'
(dp993
g515
I100
sg516
S''
sg517
S'8'
sg518
S'8'
sg519
F0
sssg524
I0
sg525
F16
sg526
g962
sg498
F0
sg527
I0
sg528
I0
sg529
I400
sg530
I16
ssS'star'
p994
(dp995
g494
I0
sg503
I0
sg504
I0
sg505
I600
sg506
g709
sg508
I0
sg31
(dp996
S'1'
(dp997
g548
S''
sg549
I0
sg550
F0
sg551
F270
sg552
F3
sg553
F0
sg554
I800
sg555
I1
sg517
S'39'
p998
sg518
S'1'
sg515
I800
sssg497
I0
sg510
I0
sg511
F15200
sg512
I600
sg36
(dp999
S'11'
p1000
(dp1001
g515
I100
sg516
S'1'
sg517
g689
sg518
g1000
sg519
F0
ssS'10'
p1002
(dp1003
g515
I100
sg516
S'1'
sg517
g689
sg518
g1002
sg519
F0
ssS'13'
p1004
(dp1005
g515
I100
sg516
S'1'
sg517
g689
sg518
g1004
sg519
F0
ssS'12'
p1006
(dp1007
g515
I100
sg516
S'1'
sg517
g689
sg518
g1006
sg519
F0
ssS'15'
p1008
(dp1009
g515
I100
sg516
S'1'
sg517
g689
sg518
g1008
sg519
F0
ssS'14'
p1010
(dp1011
g515
I100
sg516
S'1'
sg517
g689
sg518
g1010
sg519
F0
ssS'16'
p1012
(dp1013
g515
I100
sg516
S'1'
sg517
g689
sg518
g1012
sg519
F0
ssS'1'
(dp1014
g515
I100
sg516
S''
sg517
S'2'
sg518
S'1'
sg519
F0
ssS'3'
(dp1015
g515
I100
sg516
S''
sg517
S'32'
p1016
sg518
S'3'
sg519
F0
ssS'2'
(dp1017
g515
I100
sg516
S''
sg517
S'2'
sg518
S'2'
sg519
F0
ssS'5'
(dp1018
g515
I100
sg516
S''
sg517
S'8'
sg518
S'5'
sg519
F0
ssS'4'
(dp1019
g515
I100
sg516
S''
sg517
S'5'
sg518
S'4'
sg519
F0
ssS'7'
(dp1020
g515
I100
sg516
S''
sg517
S'8'
sg518
S'7'
sg519
F0
ssS'6'
(dp1021
g515
I100
sg516
S''
sg517
S'8'
sg518
S'6'
sg519
F0
ssS'9'
(dp1022
g515
I100
sg516
S'1'
sg517
g689
sg518
S'9'
sg519
F0
ssS'8'
(dp1023
g515
I100
sg516
S''
sg517
S'8'
sg518
S'8'
sg519
F0
sssg524
I0
sg525
F32
sg526
g994
sg498
F45
sg527
I0
sg528
I0
sg529
I400
sg530
I16
ssS'port'
p1024
(dp1025
g494
I0
sg503
I0
sg504
I0
sg505
I2400
sg506
g709
sg508
I0
sg31
(dp1026
S'1'
(dp1027
g548
S''
sg549
I0
sg550
F0
sg551
F270
sg552
F3
sg553
F0
sg554
I800
sg555
I1
sg517
S'39'
p1028
sg518
S'1'
sg515
I800
sssg497
I0
sg510
I0
sg511
F15200
sg512
I2400
sg36
(dp1029
S'11'
p1030
(dp1031
g515
I100
sg516
S'1'
sg517
g689
sg518
g1030
sg519
F0
ssS'10'
p1032
(dp1033
g515
I100
sg516
S'1'
sg517
g689
sg518
g1032
sg519
F0
ssS'13'
p1034
(dp1035
g515
I100
sg516
S'1'
sg517
g689
sg518
g1034
sg519
F0
ssS'12'
p1036
(dp1037
g515
I100
sg516
S'1'
sg517
g689
sg518
g1036
sg519
F0
ssS'15'
p1038
(dp1039
g515
I100
sg516
S'1'
sg517
g689
sg518
g1038
sg519
F0
ssS'14'
p1040
(dp1041
g515
I100
sg516
S'1'
sg517
g689
sg518
g1040
sg519
F0
ssS'16'
p1042
(dp1043
g515
I100
sg516
S'1'
sg517
g689
sg518
g1042
sg519
F0
ssS'1'
(dp1044
g515
I100
sg516
S''
sg517
S'2'
sg518
S'1'
sg519
F0
ssS'3'
(dp1045
g515
I100
sg516
S''
sg517
S'32'
p1046
sg518
S'3'
sg519
F0
ssS'2'
(dp1047
g515
I100
sg516
S''
sg517
S'2'
sg518
S'2'
sg519
F0
ssS'5'
(dp1048
g515
I100
sg516
S''
sg517
S'32'
p1049
sg518
S'5'
sg519
F0
ssS'4'
(dp1050
g515
I100
sg516
S''
sg517
S'32'
p1051
sg518
S'4'
sg519
F0
ssS'7'
(dp1052
g515
I100
sg516
S''
sg517
S'5'
sg518
S'7'
sg519
F0
ssS'6'
(dp1053
g515
I100
sg516
S''
sg517
S'32'
p1054
sg518
S'6'
sg519
F0
ssS'9'
(dp1055
g515
I100
sg516
S'1'
sg517
g689
sg518
S'9'
sg519
F0
ssS'8'
(dp1056
g515
I100
sg516
S''
sg517
S'8'
sg518
S'8'
sg519
F0
sssg524
I0
sg525
F32
sg526
g1024
sg498
F45
sg527
I0
sg528
I0
sg529
I100
sg530
I16
ssS'fore'
p1057
(dp1058
g494
I0
sg503
I0
sg504
I0
sg505
I1800
sg506
g709
sg508
I0
sg31
(dp1059
S'1'
(dp1060
g548
S''
sg549
I0
sg550
F0
sg551
F0
sg552
F0.29999999999999999
sg553
F0
sg554
I400
sg555
I1
sg517
S'29'
p1061
sg518
S'1'
sg515
I400
sssg497
I0
sg510
I0
sg511
F14800
sg512
I1800
sg36
(dp1062
S'11'
p1063
(dp1064
g515
I100
sg516
S''
sg517
S'8'
sg518
g1063
sg519
F0
ssS'10'
p1065
(dp1066
g515
I100
sg516
S''
sg517
S'8'
sg518
g1065
sg519
F0
ssS'13'
p1067
(dp1068
g515
I100
sg516
S'1'
sg517
g689
sg518
g1067
sg519
F0
ssS'12'
p1069
(dp1070
g515
I100
sg516
S''
sg517
S'8'
sg518
g1069
sg519
F0
ssS'15'
p1071
(dp1072
g515
I100
sg516
S'1'
sg517
g689
sg518
g1071
sg519
F0
ssS'14'
p1073
(dp1074
g515
I100
sg516
S'1'
sg517
g689
sg518
g1073
sg519
F0
ssS'16'
p1075
(dp1076
g515
I100
sg516
S'1'
sg517
g689
sg518
g1075
sg519
F0
ssS'1'
(dp1077
g515
I100
sg516
S''
sg517
S'2'
sg518
S'1'
sg519
F0
ssS'3'
(dp1078
g515
I100
sg516
S''
sg517
S'32'
p1079
sg518
S'3'
sg519
F0
ssS'2'
(dp1080
g515
I100
sg516
S''
sg517
S'2'
sg518
S'2'
sg519
F0
ssS'5'
(dp1081
g515
I100
sg516
S''
sg517
S'32'
p1082
sg518
S'5'
sg519
F0
ssS'4'
(dp1083
g515
I100
sg516
S''
sg517
S'32'
p1084
sg518
S'4'
sg519
F0
ssS'7'
(dp1085
g515
I100
sg516
S''
sg517
S'60'
p1086
sg518
S'7'
sg519
I24
ssS'6'
(dp1087
g515
I100
sg516
S''
sg517
S'50'
p1088
sg518
S'6'
sg519
I100
ssS'9'
(dp1089
g515
I100
sg516
S''
sg517
S'60'
p1090
sg518
S'9'
sg519
I24
ssS'8'
(dp1091
g515
I100
sg516
S''
sg517
S'60'
p1092
sg518
S'8'
sg519
I24
sssg524
I0
sg525
F32
sg526
g1057
sg498
F0
sg527
I0
sg528
I0
sg529
I300
sg530
I16
sssg570
F100
sg121
(lp1093
S'1'
aS'3'
aS'2'
aS'4'
aS'7'
aS'6'
aS'9'
aS'8'
asg518
g131
sg123
(lp1094
g9
ag161
ag230
ag294
ag358
ag422
asg573
I0
sg528
I0
sg574
F0
sg575
F1.47
sg553
F1200
sg525
F112
sg576
S'447'
p1095
sg578
S'2'
sg579
I-16
sg580
I-5
sg581
S'5'
sg582
(lp1096
I0
aI0
aI0
aI0
asg584
I0
sg585
S'DST16-COSMIC-447'
p1097
sg504
I0
sg551
F0
sg587
S'16'
p1098
sg589
F72
sg511
F76400
sg590
I1
sg591
F-82.666666666666657
sg592
F-71.666666666666657
sg524
I0
ssg132
(dp1099
g494
I0
sg12
(lp1100
S'5'
asg496
S''
sg497
I0
sg498
F37.700000000000003
sg499
F4000
sg500
S'8'
sg22
(dp1101
g962
(dp1102
g494
I0
sg503
I0
sg504
I0
sg505
I600
sg506
g709
sg508
I0
sg31
(dp1103
S'1'
(dp1104
g548
S''
sg549
I0
sg550
F0
sg551
F270
sg552
F3
sg553
F0
sg554
I800
sg555
I1
sg517
g966
sg518
S'1'
sg515
I800
sssg497
I0
sg510
I0
sg511
F15200
sg512
I600
sg36
(dp1105
g968
(dp1106
g515
I100
sg516
S'1'
sg517
g689
sg518
g968
sg519
F0
ssg970
(dp1107
g515
I100
sg516
S'1'
sg517
g689
sg518
g970
sg519
F0
ssg972
(dp1108
g515
I100
sg516
S'1'
sg517
g689
sg518
g972
sg519
F0
ssg974
(dp1109
g515
I100
sg516
S'1'
sg517
g689
sg518
g974
sg519
F0
ssg976
(dp1110
g515
I100
sg516
S'1'
sg517
g689
sg518
g976
sg519
F0
ssg978
(dp1111
g515
I100
sg516
S'1'
sg517
g689
sg518
g978
sg519
F0
ssg980
(dp1112
g515
I100
sg516
S'1'
sg517
g689
sg518
g980
sg519
F0
ssS'1'
(dp1113
g515
I100
sg516
S''
sg517
S'2'
sg518
S'1'
sg519
F0
ssS'3'
(dp1114
g515
I100
sg516
S''
sg517
g984
sg518
S'3'
sg519
I24
ssS'2'
(dp1115
g515
I100
sg516
S''
sg517
g986
sg518
S'2'
sg519
F0
ssS'5'
(dp1116
g515
I100
sg516
S''
sg517
S'8'
sg518
S'5'
sg519
F0
ssS'4'
(dp1117
g515
I100
sg516
S''
sg517
g989
sg518
S'4'
sg519
I24
ssS'7'
(dp1118
g515
I100
sg516
S''
sg517
S'8'
sg518
S'7'
sg519
F0
ssS'6'
(dp1119
g515
I100
sg516
S''
sg517
S'8'
sg518
S'6'
sg519
F0
ssS'9'
(dp1120
g515
I100
sg516
S'1'
sg517
g689
sg518
S'9'
sg519
F0
ssS'8'
(dp1121
g515
I100
sg516
S''
sg517
S'8'
sg518
S'8'
sg519
F0
sssg524
I0
sg525
F16
sg526
g962
sg498
F0
sg527
I0
sg528
I0
sg529
I400
sg530
I16
ssg994
(dp1122
g494
I0
sg503
I0
sg504
I0
sg505
I600
sg506
g709
sg508
I0
sg31
(dp1123
S'1'
(dp1124
g548
S''
sg549
I0
sg550
F0
sg551
F270
sg552
F3
sg553
F0
sg554
I800
sg555
I1
sg517
g998
sg518
S'1'
sg515
I800
sssg497
I0
sg510
I0
sg511
F15200
sg512
I600
sg36
(dp1125
g1000
(dp1126
g515
I100
sg516
S'1'
sg517
g689
sg518
g1000
sg519
F0
ssg1002
(dp1127
g515
I100
sg516
S'1'
sg517
g689
sg518
g1002
sg519
F0
ssg1004
(dp1128
g515
I100
sg516
S'1'
sg517
g689
sg518
g1004
sg519
F0
ssg1006
(dp1129
g515
I100
sg516
S'1'
sg517
g689
sg518
g1006
sg519
F0
ssg1008
(dp1130
g515
I100
sg516
S'1'
sg517
g689
sg518
g1008
sg519
F0
ssg1010
(dp1131
g515
I100
sg516
S'1'
sg517
g689
sg518
g1010
sg519
F0
ssg1012
(dp1132
g515
I100
sg516
S'1'
sg517
g689
sg518
g1012
sg519
F0
ssS'1'
(dp1133
g515
I100
sg516
S''
sg517
S'2'
sg518
S'1'
sg519
F0
ssS'3'
(dp1134
g515
I100
sg516
S''
sg517
g1016
sg518
S'3'
sg519
F0
ssS'2'
(dp1135
g515
I100
sg516
S''
sg517
S'2'
sg518
S'2'
sg519
F0
ssS'5'
(dp1136
g515
I100
sg516
S''
sg517
S'8'
sg518
S'5'
sg519
F0
ssS'4'
(dp1137
g515
I100
sg516
S''
sg517
S'5'
sg518
S'4'
sg519
F0
ssS'7'
(dp1138
g515
I100
sg516
S''
sg517
S'8'
sg518
S'7'
sg519
F0
ssS'6'
(dp1139
g515
I100
sg516
S''
sg517
S'8'
sg518
S'6'
sg519
F0
ssS'9'
(dp1140
g515
I100
sg516
S'1'
sg517
g689
sg518
S'9'
sg519
F0
ssS'8'
(dp1141
g515
I100
sg516
S''
sg517
S'8'
sg518
S'8'
sg519
F0
sssg524
I0
sg525
F32
sg526
g994
sg498
F45
sg527
I0
sg528
I0
sg529
I400
sg530
I16
ssg1024
(dp1142
g494
I0
sg503
I0
sg504
I0
sg505
I2400
sg506
g709
sg508
I0
sg31
(dp1143
S'1'
(dp1144
g548
S''
sg549
I0
sg550
F0
sg551
F270
sg552
F3
sg553
F0
sg554
I800
sg555
I1
sg517
g1028
sg518
S'1'
sg515
I800
sssg497
I0
sg510
I0
sg511
F15200
sg512
I2400
sg36
(dp1145
g1030
(dp1146
g515
I100
sg516
S'1'
sg517
g689
sg518
g1030
sg519
F0
ssg1032
(dp1147
g515
I100
sg516
S'1'
sg517
g689
sg518
g1032
sg519
F0
ssg1034
(dp1148
g515
I100
sg516
S'1'
sg517
g689
sg518
g1034
sg519
F0
ssg1036
(dp1149
g515
I100
sg516
S'1'
sg517
g689
sg518
g1036
sg519
F0
ssg1038
(dp1150
g515
I100
sg516
S'1'
sg517
g689
sg518
g1038
sg519
F0
ssg1040
(dp1151
g515
I100
sg516
S'1'
sg517
g689
sg518
g1040
sg519
F0
ssg1042
(dp1152
g515
I100
sg516
S'1'
sg517
g689
sg518
g1042
sg519
F0
ssS'1'
(dp1153
g515
I100
sg516
S''
sg517
S'2'
sg518
S'1'
sg519
F0
ssS'3'
(dp1154
g515
I100
sg516
S''
sg517
g1046
sg518
S'3'
sg519
F0
ssS'2'
(dp1155
g515
I100
sg516
S''
sg517
S'2'
sg518
S'2'
sg519
F0
ssS'5'
(dp1156
g515
I100
sg516
S''
sg517
g1049
sg518
S'5'
sg519
F0
ssS'4'
(dp1157
g515
I100
sg516
S''
sg517
g1051
sg518
S'4'
sg519
F0
ssS'7'
(dp1158
g515
I100
sg516
S''
sg517
S'5'
sg518
S'7'
sg519
F0
ssS'6'
(dp1159
g515
I100
sg516
S''
sg517
g1054
sg518
S'6'
sg519
F0
ssS'9'
(dp1160
g515
I100
sg516
S'1'
sg517
g689
sg518
S'9'
sg519
F0
ssS'8'
(dp1161
g515
I100
sg516
S''
sg517
S'8'
sg518
S'8'
sg519
F0
sssg524
I0
sg525
F32
sg526
g1024
sg498
F45
sg527
I0
sg528
I0
sg529
I100
sg530
I16
ssg1057
(dp1162
g494
I0
sg503
I0
sg504
I0
sg505
I1800
sg506
g709
sg508
I0
sg31
(dp1163
S'1'
(dp1164
g548
S''
sg549
I0
sg550
F0
sg551
F0
sg552
F0.29999999999999999
sg553
F0
sg554
I400
sg555
I1
sg517
g1061
sg518
S'1'
sg515
I400
sssg497
I0
sg510
I0
sg511
F14800
sg512
I1800
sg36
(dp1165
g1063
(dp1166
g515
I100
sg516
S''
sg517
S'8'
sg518
g1063
sg519
F0
ssg1065
(dp1167
g515
I100
sg516
S''
sg517
S'8'
sg518
g1065
sg519
F0
ssg1067
(dp1168
g515
I100
sg516
S'1'
sg517
g689
sg518
g1067
sg519
F0
ssg1069
(dp1169
g515
I100
sg516
S''
sg517
S'8'
sg518
g1069
sg519
F0
ssg1071
(dp1170
g515
I100
sg516
S'1'
sg517
g689
sg518
g1071
sg519
F0
ssg1073
(dp1171
g515
I100
sg516
S'1'
sg517
g689
sg518
g1073
sg519
F0
ssg1075
(dp1172
g515
I100
sg516
S'1'
sg517
g689
sg518
g1075
sg519
F0
ssS'1'
(dp1173
g515
I100
sg516
S''
sg517
S'2'
sg518
S'1'
sg519
F0
ssS'3'
(dp1174
g515
I100
sg516
S''
sg517
g1079
sg518
S'3'
sg519
F0
ssS'2'
(dp1175
g515
I100
sg516
S''
sg517
S'2'
sg518
S'2'
sg519
F0
ssS'5'
(dp1176
g515
I100
sg516
S''
sg517
g1082
sg518
S'5'
sg519
F0
ssS'4'
(dp1177
g515
I100
sg516
S''
sg517
g1084
sg518
S'4'
sg519
F0
ssS'7'
(dp1178
g515
I100
sg516
S''
sg517
g1086
sg518
S'7'
sg519
I24
ssS'6'
(dp1179
g515
I100
sg516
S''
sg517
g1088
sg518
S'6'
sg519
I100
ssS'9'
(dp1180
g515
I100
sg516
S''
sg517
g1090
sg518
S'9'
sg519
I24
ssS'8'
(dp1181
g515
I100
sg516
S''
sg517
g1092
sg518
S'8'
sg519
I24
sssg524
I0
sg525
F32
sg526
g1057
sg498
F0
sg527
I0
sg528
I0
sg529
I300
sg530
I16
sssg570
F100
sg121
(lp1182
S'1'
aS'3'
aS'2'
aS'4'
aS'7'
aS'6'
aS'9'
aS'8'
asg518
g132
sg123
(lp1183
g9
ag161
ag230
ag294
ag358
ag422
asg573
I0
sg528
I0
sg574
F0
sg575
F1.47
sg553
F1200
sg525
F112
sg576
S'446'
p1184
sg578
S'2'
sg579
I-19
sg580
I-19
sg581
S'5'
sg582
(lp1185
I0
aI0
aI0
aI0
asg584
I0
sg585
S'DST16-COSMIC-446'
p1186
sg504
I0
sg551
F0
sg587
g1098
sg589
F72
sg511
F76400
sg590
I1
sg591
F-85.666666666666657
sg592
F-85.666666666666657
sg524
I0
ssg133
(dp1187
g494
I0
sg12
(lp1188
S'5'
asg496
S''
sg497
I0
sg498
F37.700000000000003
sg499
F4000
sg500
S'8'
sg22
(dp1189
g962
(dp1190
g494
I0
sg503
I0
sg504
I0
sg505
I600
sg506
g709
sg508
I0
sg31
(dp1191
S'1'
(dp1192
g548
S''
sg549
I0
sg550
F0
sg551
F270
sg552
F3
sg553
F0
sg554
I800
sg555
I1
sg517
g966
sg518
S'1'
sg515
I800
sssg497
I0
sg510
I0
sg511
F15200
sg512
I600
sg36
(dp1193
g968
(dp1194
g515
I100
sg516
S'1'
sg517
g689
sg518
g968
sg519
F0
ssg970
(dp1195
g515
I100
sg516
S'1'
sg517
g689
sg518
g970
sg519
F0
ssg972
(dp1196
g515
I100
sg516
S'1'
sg517
g689
sg518
g972
sg519
F0
ssg974
(dp1197
g515
I100
sg516
S'1'
sg517
g689
sg518
g974
sg519
F0
ssg976
(dp1198
g515
I100
sg516
S'1'
sg517
g689
sg518
g976
sg519
F0
ssg978
(dp1199
g515
I100
sg516
S'1'
sg517
g689
sg518
g978
sg519
F0
ssg980
(dp1200
g515
I100
sg516
S'1'
sg517
g689
sg518
g980
sg519
F0
ssS'1'
(dp1201
g515
I100
sg516
S''
sg517
S'2'
sg518
S'1'
sg519
F0
ssS'3'
(dp1202
g515
I100
sg516
S''
sg517
g984
sg518
S'3'
sg519
I24
ssS'2'
(dp1203
g515
I100
sg516
S''
sg517
g986
sg518
S'2'
sg519
F0
ssS'5'
(dp1204
g515
I100
sg516
S''
sg517
S'8'
sg518
S'5'
sg519
F0
ssS'4'
(dp1205
g515
I100
sg516
S''
sg517
g989
sg518
S'4'
sg519
I24
ssS'7'
(dp1206
g515
I100
sg516
S''
sg517
S'8'
sg518
S'7'
sg519
F0
ssS'6'
(dp1207
g515
I100
sg516
S''
sg517
S'8'
sg518
S'6'
sg519
F0
ssS'9'
(dp1208
g515
I100
sg516
S'1'
sg517
g689
sg518
S'9'
sg519
F0
ssS'8'
(dp1209
g515
I100
sg516
S''
sg517
S'8'
sg518
S'8'
sg519
F0
sssg524
I0
sg525
F16
sg526
g962
sg498
F0
sg527
I0
sg528
I0
sg529
I400
sg530
I16
ssg994
(dp1210
g494
I0
sg503
I0
sg504
I0
sg505
I600
sg506
g709
sg508
I0
sg31
(dp1211
S'1'
(dp1212
g548
S''
sg549
I0
sg550
F0
sg551
F270
sg552
F3
sg553
F0
sg554
I800
sg555
I1
sg517
g998
sg518
S'1'
sg515
I800
sssg497
I0
sg510
I0
sg511
F15200
sg512
I600
sg36
(dp1213
g1000
(dp1214
g515
I100
sg516
S'1'
sg517
g689
sg518
g1000
sg519
F0
ssg1002
(dp1215
g515
I100
sg516
S'1'
sg517
g689
sg518
g1002
sg519
F0
ssg1004
(dp1216
g515
I100
sg516
S'1'
sg517
g689
sg518
g1004
sg519
F0
ssg1006
(dp1217
g515
I100
sg516
S'1'
sg517
g689
sg518
g1006
sg519
F0
ssg1008
(dp1218
g515
I100
sg516
S'1'
sg517
g689
sg518
g1008
sg519
F0
ssg1010
(dp1219
g515
I100
sg516
S'1'
sg517
g689
sg518
g1010
sg519
F0
ssg1012
(dp1220
g515
I100
sg516
S'1'
sg517
g689
sg518
g1012
sg519
F0
ssS'1'
(dp1221
g515
I100
sg516
S''
sg517
S'2'
sg518
S'1'
sg519
F0
ssS'3'
(dp1222
g515
I100
sg516
S''
sg517
g1016
sg518
S'3'
sg519
F0
ssS'2'
(dp1223
g515
I100
sg516
S''
sg517
S'2'
sg518
S'2'
sg519
F0
ssS'5'
(dp1224
g515
I100
sg516
S''
sg517
S'8'
sg518
S'5'
sg519
F0
ssS'4'
(dp1225
g515
I100
sg516
S''
sg517
S'5'
sg518
S'4'
sg519
F0
ssS'7'
(dp1226
g515
I100
sg516
S''
sg517
S'8'
sg518
S'7'
sg519
F0
ssS'6'
(dp1227
g515
I100
sg516
S''
sg517
S'8'
sg518
S'6'
sg519
F0
ssS'9'
(dp1228
g515
I100
sg516
S'1'
sg517
g689
sg518
S'9'
sg519
F0
ssS'8'
(dp1229
g515
I100
sg516
S''
sg517
S'8'
sg518
S'8'
sg519
F0
sssg524
I0
sg525
F32
sg526
g994
sg498
F45
sg527
I0
sg528
I0
sg529
I400
sg530
I16
ssg1024
(dp1230
g494
I0
sg503
I0
sg504
I0
sg505
I2400
sg506
g709
sg508
I0
sg31
(dp1231
S'1'
(dp1232
g548
S''
sg549
I0
sg550
F0
sg551
F270
sg552
F3
sg553
F0
sg554
I800
sg555
I1
sg517
g1028
sg518
S'1'
sg515
I800
sssg497
I0
sg510
I0
sg511
F15200
sg512
I2400
sg36
(dp1233
g1030
(dp1234
g515
I100
sg516
S'1'
sg517
g689
sg518
g1030
sg519
F0
ssg1032
(dp1235
g515
I100
sg516
S'1'
sg517
g689
sg518
g1032
sg519
F0
ssg1034
(dp1236
g515
I100
sg516
S'1'
sg517
g689
sg518
g1034
sg519
F0
ssg1036
(dp1237
g515
I100
sg516
S'1'
sg517
g689
sg518
g1036
sg519
F0
ssg1038
(dp1238
g515
I100
sg516
S'1'
sg517
g689
sg518
g1038
sg519
F0
ssg1040
(dp1239
g515
I100
sg516
S'1'
sg517
g689
sg518
g1040
sg519
F0
ssg1042
(dp1240
g515
I100
sg516
S'1'
sg517
g689
sg518
g1042
sg519
F0
ssS'1'
(dp1241
g515
I100
sg516
S''
sg517
S'2'
sg518
S'1'
sg519
F0
ssS'3'
(dp1242
g515
I100
sg516
S''
sg517
g1046
sg518
S'3'
sg519
F0
ssS'2'
(dp1243
g515
I100
sg516
S''
sg517
S'2'
sg518
S'2'
sg519
F0
ssS'5'
(dp1244
g515
I100
sg516
S''
sg517
g1049
sg518
S'5'
sg519
F0
ssS'4'
(dp1245
g515
I100
sg516
S''
sg517
g1051
sg518
S'4'
sg519
F0
ssS'7'
(dp1246
g515
I100
sg516
S''
sg517
S'5'
sg518
S'7'
sg519
F0
ssS'6'
(dp1247
g515
I100
sg516
S''
sg517
g1054
sg518
S'6'
sg519
F0
ssS'9'
(dp1248
g515
I100
sg516
S'1'
sg517
g689
sg518
S'9'
sg519
F0
ssS'8'
(dp1249
g515
I100
sg516
S''
sg517
S'8'
sg518
S'8'
sg519
F0
sssg524
I0
sg525
F32
sg526
g1024
sg498
F45
sg527
I0
sg528
I0
sg529
I100
sg530
I16
ssg1057
(dp1250
g494
I0
sg503
I0
sg504
I0
sg505
I1800
sg506
g709
sg508
I0
sg31
(dp1251
S'1'
(dp1252
g548
S''
sg549
I0
sg550
F0
sg551
F0
sg552
F0.29999999999999999
sg553
F0
sg554
I400
sg555
I1
sg517
g1061
sg518
S'1'
sg515
I400
sssg497
I0
sg510
I0
sg511
F14800
sg512
I1800
sg36
(dp1253
g1063
(dp1254
g515
I100
sg516
S''
sg517
S'8'
sg518
g1063
sg519
F0
ssg1065
(dp1255
g515
I100
sg516
S''
sg517
S'8'
sg518
g1065
sg519
F0
ssg1067
(dp1256
g515
I100
sg516
S'1'
sg517
g689
sg518
g1067
sg519
F0
ssg1069
(dp1257
g515
I100
sg516
S''
sg517
S'8'
sg518
g1069
sg519
F0
ssg1071
(dp1258
g515
I100
sg516
S'1'
sg517
g689
sg518
g1071
sg519
F0
ssg1073
(dp1259
g515
I100
sg516
S'1'
sg517
g689
sg518
g1073
sg519
F0
ssg1075
(dp1260
g515
I100
sg516
S'1'
sg517
g689
sg518
g1075
sg519
F0
ssS'1'
(dp1261
g515
I100
sg516
S''
sg517
S'2'
sg518
S'1'
sg519
F0
ssS'3'
(dp1262
g515
I100
sg516
S''
sg517
g1079
sg518
S'3'
sg519
F0
ssS'2'
(dp1263
g515
I100
sg516
S''
sg517
S'2'
sg518
S'2'
sg519
F0
ssS'5'
(dp1264
g515
I100
sg516
S''
sg517
g1082
sg518
S'5'
sg519
F0
ssS'4'
(dp1265
g515
I100
sg516
S''
sg517
g1084
sg518
S'4'
sg519
F0
ssS'7'
(dp1266
g515
I100
sg516
S''
sg517
g1086
sg518
S'7'
sg519
I24
ssS'6'
(dp1267
g515
I100
sg516
S''
sg517
g1088
sg518
S'6'
sg519
I100
ssS'9'
(dp1268
g515
I100
sg516
S''
sg517
g1090
sg518
S'9'
sg519
I24
ssS'8'
(dp1269
g515
I100
sg516
S''
sg517
g1092
sg518
S'8'
sg519
I24
sssg524
I0
sg525
F32
sg526
g1057
sg498
F0
sg527
I0
sg528
I0
sg529
I300
sg530
I16
sssg570
F100
sg121
(lp1270
S'1'
aS'3'
aS'2'
aS'4'
aS'7'
aS'6'
aS'9'
aS'8'
asg518
g133
sg123
(lp1271
g9
ag161
ag230
ag294
ag358
ag422
asg573
I0
sg528
I0
sg574
F0
sg575
F1.47
sg553
F1200
sg525
F112
sg576
S'445'
p1272
sg578
S'2'
sg579
I-7
sg580
I-7
sg581
S'5'
sg582
(lp1273
I0
aI0
aI0
aI0
asg584
I0
sg585
S'DST16-COSMIC-445'
p1274
sg504
I0
sg551
F0
sg587
g1098
sg589
F72
sg511
F76400
sg590
I1
sg591
F-73.666666666666657
sg592
F-73.666666666666657
sg524
I0
ssg134
(dp1275
g494
I0
sg12
(lp1276
S'5'
asg496
S''
sg497
I0
sg498
F37.700000000000003
sg499
F4000
sg500
S'8'
sg22
(dp1277
g962
(dp1278
g494
I0
sg503
I0
sg504
I0
sg505
I600
sg506
g709
sg508
I0
sg31
(dp1279
S'1'
(dp1280
g548
S''
sg549
I0
sg550
F0
sg551
F270
sg552
F3
sg553
F0
sg554
I800
sg555
I1
sg517
g966
sg518
S'1'
sg515
I800
sssg497
I0
sg510
I0
sg511
F15200
sg512
I600
sg36
(dp1281
g968
(dp1282
g515
I100
sg516
S'1'
sg517
g689
sg518
g968
sg519
F0
ssg970
(dp1283
g515
I100
sg516
S'1'
sg517
g689
sg518
g970
sg519
F0
ssg972
(dp1284
g515
I100
sg516
S'1'
sg517
g689
sg518
g972
sg519
F0
ssg974
(dp1285
g515
I100
sg516
S'1'
sg517
g689
sg518
g974
sg519
F0
ssg976
(dp1286
g515
I100
sg516
S'1'
sg517
g689
sg518
g976
sg519
F0
ssg978
(dp1287
g515
I100
sg516
S'1'
sg517
g689
sg518
g978
sg519
F0
ssg980
(dp1288
g515
I100
sg516
S'1'
sg517
g689
sg518
g980
sg519
F0
ssS'1'
(dp1289
g515
I100
sg516
S''
sg517
S'2'
sg518
S'1'
sg519
F0
ssS'3'
(dp1290
g515
I100
sg516
S''
sg517
g984
sg518
S'3'
sg519
I24
ssS'2'
(dp1291
g515
I100
sg516
S''
sg517
g986
sg518
S'2'
sg519
F0
ssS'5'
(dp1292
g515
I100
sg516
S''
sg517
S'8'
sg518
S'5'
sg519
F0
ssS'4'
(dp1293
g515
I100
sg516
S''
sg517
g989
sg518
S'4'
sg519
I24
ssS'7'
(dp1294
g515
I100
sg516
S''
sg517
S'8'
sg518
S'7'
sg519
F0
ssS'6'
(dp1295
g515
I100
sg516
S''
sg517
S'8'
sg518
S'6'
sg519
F0
ssS'9'
(dp1296
g515
I100
sg516
S'1'
sg517
g689
sg518
S'9'
sg519
F0
ssS'8'
(dp1297
g515
I100
sg516
S''
sg517
S'8'
sg518
S'8'
sg519
F0
sssg524
I0
sg525
F16
sg526
g962
sg498
F0
sg527
I0
sg528
I0
sg529
I400
sg530
I16
ssg994
(dp1298
g494
I0
sg503
I0
sg504
I0
sg505
I600
sg506
g709
sg508
I0
sg31
(dp1299
S'1'
(dp1300
g548
S''
sg549
I0
sg550
F0
sg551
F270
sg552
F3
sg553
F0
sg554
I800
sg555
I1
sg517
g998
sg518
S'1'
sg515
I800
sssg497
I0
sg510
I0
sg511
F15200
sg512
I600
sg36
(dp1301
g1000
(dp1302
g515
I100
sg516
S'1'
sg517
g689
sg518
g1000
sg519
F0
ssg1002
(dp1303
g515
I100
sg516
S'1'
sg517
g689
sg518
g1002
sg519
F0
ssg1004
(dp1304
g515
I100
sg516
S'1'
sg517
g689
sg518
g1004
sg519
F0
ssg1006
(dp1305
g515
I100
sg516
S'1'
sg517
g689
sg518
g1006
sg519
F0
ssg1008
(dp1306
g515
I100
sg516
S'1'
sg517
g689
sg518
g1008
sg519
F0
ssg1010
(dp1307
g515
I100
sg516
S'1'
sg517
g689
sg518
g1010
sg519
F0
ssg1012
(dp1308
g515
I100
sg516
S'1'
sg517
g689
sg518
g1012
sg519
F0
ssS'1'
(dp1309
g515
I100
sg516
S''
sg517
S'2'
sg518
S'1'
sg519
F0
ssS'3'
(dp1310
g515
I100
sg516
S''
sg517
g1016
sg518
S'3'
sg519
F0
ssS'2'
(dp1311
g515
I100
sg516
S''
sg517
S'2'
sg518
S'2'
sg519
F0
ssS'5'
(dp1312
g515
I100
sg516
S''
sg517
S'8'
sg518
S'5'
sg519
F0
ssS'4'
(dp1313
g515
I100
sg516
S''
sg517
S'5'
sg518
S'4'
sg519
F0
ssS'7'
(dp1314
g515
I100
sg516
S''
sg517
S'8'
sg518
S'7'
sg519
F0
ssS'6'
(dp1315
g515
I100
sg516
S''
sg517
S'8'
sg518
S'6'
sg519
F0
ssS'9'
(dp1316
g515
I100
sg516
S'1'
sg517
g689
sg518
S'9'
sg519
F0
ssS'8'
(dp1317
g515
I100
sg516
S''
sg517
S'8'
sg518
S'8'
sg519
F0
sssg524
I0
sg525
F32
sg526
g994
sg498
F45
sg527
I0
sg528
I0
sg529
I400
sg530
I16
ssg1024
(dp1318
g494
I0
sg503
I0
sg504
I0
sg505
I2400
sg506
g709
sg508
I0
sg31
(dp1319
S'1'
(dp1320
g548
S''
sg549
I0
sg550
F0
sg551
F270
sg552
F3
sg553
F0
sg554
I800
sg555
I1
sg517
g1028
sg518
S'1'
sg515
I800
sssg497
I0
sg510
I0
sg511
F15200
sg512
I2400
sg36
(dp1321
g1030
(dp1322
g515
I100
sg516
S'1'
sg517
g689
sg518
g1030
sg519
F0
ssg1032
(dp1323
g515
I100
sg516
S'1'
sg517
g689
sg518
g1032
sg519
F0
ssg1034
(dp1324
g515
I100
sg516
S'1'
sg517
g689
sg518
g1034
sg519
F0
ssg1036
(dp1325
g515
I100
sg516
S'1'
sg517
g689
sg518
g1036
sg519
F0
ssg1038
(dp1326
g515
I100
sg516
S'1'
sg517
g689
sg518
g1038
sg519
F0
ssg1040
(dp1327
g515
I100
sg516
S'1'
sg517
g689
sg518
g1040
sg519
F0
ssg1042
(dp1328
g515
I100
sg516
S'1'
sg517
g689
sg518
g1042
sg519
F0
ssS'1'
(dp1329
g515
I100
sg516
S''
sg517
S'2'
sg518
S'1'
sg519
F0
ssS'3'
(dp1330
g515
I100
sg516
S''
sg517
g1046
sg518
S'3'
sg519
F0
ssS'2'
(dp1331
g515
I100
sg516
S''
sg517
S'2'
sg518
S'2'
sg519
F0
ssS'5'
(dp1332
g515
I100
sg516
S''
sg517
g1049
sg518
S'5'
sg519
F0
ssS'4'
(dp1333
g515
I100
sg516
S''
sg517
g1051
sg518
S'4'
sg519
F0
ssS'7'
(dp1334
g515
I100
sg516
S''
sg517
S'5'
sg518
S'7'
sg519
F0
ssS'6'
(dp1335
g515
I100
sg516
S''
sg517
g1054
sg518
S'6'
sg519
F0
ssS'9'
(dp1336
g515
I100
sg516
S'1'
sg517
g689
sg518
S'9'
sg519
F0
ssS'8'
(dp1337
g515
I100
sg516
S''
sg517
S'8'
sg518
S'8'
sg519
F0
sssg524
I0
sg525
F32
sg526
g1024
sg498
F45
sg527
I0
sg528
I0
sg529
I100
sg530
I16
ssg1057
(dp1338
g494
I0
sg503
I0
sg504
I0
sg505
I1800
sg506
g709
sg508
I0
sg31
(dp1339
S'1'
(dp1340
g548
S''
sg549
I0
sg550
F0
sg551
F0
sg552
F0.29999999999999999
sg553
F0
sg554
I400
sg555
I1
sg517
g1061
sg518
S'1'
sg515
I400
sssg497
I0
sg510
I0
sg511
F14800
sg512
I1800
sg36
(dp1341
g1063
(dp1342
g515
I100
sg516
S''
sg517
S'8'
sg518
g1063
sg519
F0
ssg1065
(dp1343
g515
I100
sg516
S''
sg517
S'8'
sg518
g1065
sg519
F0
ssg1067
(dp1344
g515
I100
sg516
S'1'
sg517
g689
sg518
g1067
sg519
F0
ssg1069
(dp1345
g515
I100
sg516
S''
sg517
S'8'
sg518
g1069
sg519
F0
ssg1071
(dp1346
g515
I100
sg516
S'1'
sg517
g689
sg518
g1071
sg519
F0
ssg1073
(dp1347
g515
I100
sg516
S'1'
sg517
g689
sg518
g1073
sg519
F0
ssg1075
(dp1348
g515
I100
sg516
S'1'
sg517
g689
sg518
g1075
sg519
F0
ssS'1'
(dp1349
g515
I100
sg516
S''
sg517
S'2'
sg518
S'1'
sg519
F0
ssS'3'
(dp1350
g515
I100
sg516
S''
sg517
g1079
sg518
S'3'
sg519
F0
ssS'2'
(dp1351
g515
I100
sg516
S''
sg517
S'2'
sg518
S'2'
sg519
F0
ssS'5'
(dp1352
g515
I100
sg516
S''
sg517
g1082
sg518
S'5'
sg519
F0
ssS'4'
(dp1353
g515
I100
sg516
S''
sg517
g1084
sg518
S'4'
sg519
F0
ssS'7'
(dp1354
g515
I100
sg516
S''
sg517
g1086
sg518
S'7'
sg519
I24
ssS'6'
(dp1355
g515
I100
sg516
S''
sg517
g1088
sg518
S'6'
sg519
I100
ssS'9'
(dp1356
g515
I100
sg516
S''
sg517
g1090
sg518
S'9'
sg519
I24
ssS'8'
(dp1357
g515
I100
sg516
S''
sg517
g1092
sg518
S'8'
sg519
I24
sssg524
I0
sg525
F32
sg526
g1057
sg498
F0
sg527
I0
sg528
I0
sg529
I300
sg530
I16
sssg570
F100
sg121
(lp1358
S'1'
aS'3'
aS'2'
aS'4'
aS'7'
aS'6'
aS'9'
aS'8'
asg518
g134
sg123
(lp1359
g9
ag161
ag230
ag294
ag358
ag422
asg573
I0
sg528
I0
sg574
F0
sg575
F1.47
sg553
F1200
sg525
F112
sg576
S'444'
p1360
sg578
S'2'
sg579
I-6
sg580
I-9
sg581
S'5'
sg582
(lp1361
I0
aI0
aI0
aI0
asg584
I0
sg585
S'DST16-COSMIC-444'
p1362
sg504
I0
sg551
F0
sg587
g1098
sg589
F72
sg511
F76400
sg590
I1
sg591
F-72.666666666666657
sg592
F-75.666666666666657
sg524
I0
ssg135
(dp1363
g494
I0
sg12
(lp1364
sg496
S''
sg497
I0
sg498
F45.18
sg499
F2000
sg500
S'8'
sg22
(dp1365
g24
(dp1366
g494
I0
sg503
I0
sg504
I0
sg505
I300
sg506
g507
sg508
I1
sg31
(dp1367
sg497
I0
sg510
I100
sg511
F3000
sg512
I300
sg36
(dp1368
S'1'
(dp1369
g515
I50
sg516
S''
sg517
S'1'
sg518
S'1'
sg519
F0
ssS'3'
(dp1370
g515
I50
sg516
S''
sg517
g521
sg518
S'3'
sg519
F0
ssS'2'
(dp1371
g515
I50
sg516
S''
sg517
g523
sg518
S'2'
sg519
F0
sssg524
I0
sg525
F10
sg526
g24
sg498
F0
sg527
I100
sg528
I0
sg529
I0
sg530
I3
ssg62
(dp1372
g494
I0
sg503
I0
sg504
I0
sg505
I300
sg506
g507
sg508
I1
sg31
(dp1373
sg497
I0
sg510
I100
sg511
F4000
sg512
I300
sg36
(dp1374
S'1'
(dp1375
g515
I50
sg516
S''
sg517
S'1'
sg518
S'1'
sg519
F0
ssS'3'
(dp1376
g515
I50
sg516
S''
sg517
g521
sg518
S'3'
sg519
F0
ssS'2'
(dp1377
g515
I50
sg516
S''
sg517
g523
sg518
S'2'
sg519
F0
ssS'4'
(dp1378
g515
I50
sg516
S''
sg517
S'4'
sg518
S'4'
sg519
F0
sssg524
I0
sg525
F10
sg526
g62
sg498
F24
sg527
I100
sg528
I0
sg529
I0
sg530
I4
ssg88
(dp1379
g494
I0
sg503
I0
sg504
I0
sg505
I300
sg506
g507
sg508
I1
sg31
(dp1380
sg497
I0
sg510
I100
sg511
F4000
sg512
I300
sg36
(dp1381
S'1'
(dp1382
g515
I50
sg516
S''
sg517
S'1'
sg518
S'1'
sg519
F0
ssS'3'
(dp1383
g515
I50
sg516
S''
sg517
g521
sg518
S'3'
sg519
F0
ssS'2'
(dp1384
g515
I50
sg516
S''
sg517
g523
sg518
S'2'
sg519
F0
ssS'4'
(dp1385
g515
I50
sg516
S''
sg517
S'4'
sg518
S'4'
sg519
F0
sssg524
I0
sg525
F10
sg526
g88
sg498
F24
sg527
I100
sg528
I0
sg529
I0
sg530
I4
ssg105
(dp1386
g494
I0
sg503
I0
sg504
I0
sg505
I300
sg506
g507
sg508
I1
sg31
(dp1387
S'1'
(dp1388
g548
S''
sg549
I0
sg550
F0
sg551
F0
sg552
F0.29999999999999999
sg553
F0
sg554
I200
sg555
I1
sg517
S'4'
sg518
S'1'
sg515
I200
sssg497
I0
sg510
I100
sg511
F11000
sg512
I300
sg36
(dp1389
g557
(dp1390
g515
I50
sg516
S'1'
sg517
g79
sg518
g557
sg519
F0
ssg559
(dp1391
g515
I50
sg516
S'1'
sg517
g79
sg518
g559
sg519
F0
ssS'1'
(dp1392
g515
I50
sg516
S''
sg517
S'1'
sg518
S'1'
sg519
F0
ssS'3'
(dp1393
g515
I50
sg516
S''
sg517
g521
sg518
S'3'
sg519
F0
ssS'2'
(dp1394
g515
I50
sg516
S''
sg517
g523
sg518
S'2'
sg519
F0
ssS'5'
(dp1395
g515
I50
sg516
S''
sg517
S'7'
sg518
S'5'
sg519
F0
ssS'4'
(dp1396
g515
I50
sg516
S''
sg517
S'7'
sg518
S'4'
sg519
F0
ssS'7'
(dp1397
g515
I50
sg516
S''
sg517
S'7'
sg518
S'7'
sg519
F0
ssS'6'
(dp1398
g515
I50
sg516
S''
sg517
S'7'
sg518
S'6'
sg519
F0
ssS'9'
(dp1399
g515
I50
sg516
S'1'
sg517
g79
sg518
S'9'
sg519
F0
ssS'8'
(dp1400
g515
I50
sg516
S'1'
sg517
g79
sg518
S'8'
sg519
F0
sssg524
I0
sg525
F10
sg526
g105
sg498
F0
sg527
I100
sg528
I0
sg529
I200
sg530
I11
sssg570
F100
sg121
(lp1401
sg518
g135
sg123
(lp1402
g9
ag161
ag230
ag294
ag358
ag422
asg573
I0
sg528
I0
sg574
F0
sg575
F1.1799999999999999
sg553
F200
sg525
F40
sg576
S'90'
p1403
sg578
S'2'
sg579
I-21
sg580
I-17
sg581
S'5'
sg582
(lp1404
I0
aI0
aI0
aI0
asg584
I1
sg585
S'LAS12-Marine Transport-90'
p1405
sg504
I0
sg551
F0
sg587
g588
sg589
I99999
sg511
F34000
sg590
I1
sg591
F-87.666666666666657
sg592
F-83.666666666666657
sg524
I0
ssg136
(dp1406
g494
I0
sg12
(lp1407
S'5'
asg496
S''
sg497
I0
sg498
F60
sg499
F1000
sg500
S'8'
sg22
(dp1408
g884
(dp1409
g494
I0
sg503
I0
sg504
I0
sg505
I0
sg506
S''
sg508
I0
sg31
(dp1410
S'1'
(dp1411
g548
S''
sg549
I0
sg550
I0
sg551
F0
sg552
F0.29999999999999999
sg553
F150
sg554
I400
sg555
I1
sg517
S'8'
sg518
S'1'
sg515
I400
sssg497
I0
sg510
I0
sg511
F9400
sg512
I0
sg36
(dp1412
S'10'
p1413
(dp1414
g515
I100
sg516
S'1'
sg517
S'64'
p1415
sg518
g1413
sg519
F0
ssS'1'
(dp1416
g515
I100
sg516
S''
sg517
S'2'
sg518
S'1'
sg519
F0
ssS'3'
(dp1417
g515
I100
sg516
S''
sg517
S'5'
sg518
S'3'
sg519
F0
ssS'2'
(dp1418
g515
I100
sg516
S''
sg517
S'2'
sg518
S'2'
sg519
F0
ssS'5'
(dp1419
g515
I100
sg516
S''
sg517
S'8'
sg518
S'5'
sg519
F0
ssS'4'
(dp1420
g515
I100
sg516
S''
sg517
S'8'
sg518
S'4'
sg519
F0
ssS'7'
(dp1421
g515
I100
sg516
S'1'
sg517
g1415
sg518
S'7'
sg519
F0
ssS'6'
(dp1422
g515
I100
sg516
S''
sg517
S'8'
sg518
S'6'
sg519
F0
ssS'9'
(dp1423
g515
I100
sg516
S'1'
sg517
g1415
sg518
S'9'
sg519
F0
ssS'8'
(dp1424
g515
I100
sg516
S'1'
sg517
g1415
sg518
S'8'
sg519
F0
sssg524
I0
sg525
F32
sg526
S'aft'
p1425
sg498
F45
sg527
I0
sg528
I0
sg529
I300
sg530
I10
ssg900
(dp1426
g494
I0
sg503
I0
sg504
I0
sg505
I0
sg506
S''
sg508
I0
sg31
(dp1427
S'1'
(dp1428
g548
S''
sg549
I1
sg550
I0
sg551
F90
sg552
F3
sg553
F600
sg554
I800
sg555
I1
sg517
S'28'
p1429
sg518
S'1'
sg515
I800
sssg497
I0
sg510
I0
sg511
F8900
sg512
I0
sg36
(dp1430
S'10'
p1431
(dp1432
g515
I100
sg516
S'1'
sg517
g1415
sg518
g1431
sg519
F0
ssS'3'
(dp1433
g515
I100
sg516
S'1'
sg517
g1415
sg518
S'3'
sg519
F0
ssS'2'
(dp1434
g515
F50
sg516
S''
sg517
S'49'
p1435
sg518
S'2'
sg519
I16
ssS'5'
(dp1436
g515
I100
sg516
S'1'
sg517
g1415
sg518
S'5'
sg519
F0
ssS'4'
(dp1437
g515
I100
sg516
S'1'
sg517
g1415
sg518
S'4'
sg519
F0
ssS'7'
(dp1438
g515
I100
sg516
S'1'
sg517
g1415
sg518
S'7'
sg519
F0
ssS'6'
(dp1439
g515
I100
sg516
S'1'
sg517
g1415
sg518
S'6'
sg519
F0
ssS'9'
(dp1440
g515
I100
sg516
S'1'
sg517
g1415
sg518
S'9'
sg519
F0
ssS'8'
(dp1441
g515
I100
sg516
S'1'
sg517
g1415
sg518
S'8'
sg519
F0
sssg524
I0
sg525
I0
sg526
S'star'
p1442
sg498
I0
sg527
I0
sg528
I0
sg529
I0
sg530
I9
ssg919
(dp1443
g494
I0
sg503
I0
sg504
I0
sg505
I0
sg506
S''
sg508
I0
sg31
(dp1444
S'1'
(dp1445
g548
S''
sg549
I1
sg550
I0
sg551
F270
sg552
F3
sg553
F600
sg554
I800
sg555
I1
sg517
S'28'
p1446
sg518
S'1'
sg515
I800
sssg497
I0
sg510
I0
sg511
F9800
sg512
I0
sg36
(dp1447
S'10'
p1448
(dp1449
g515
I100
sg516
S'1'
sg517
g1415
sg518
g1448
sg519
F0
ssS'1'
(dp1450
g515
I100
sg516
S''
sg517
S'49'
p1451
sg518
S'1'
sg519
I7
ssS'3'
(dp1452
g515
I100
sg516
S'1'
sg517
g1415
sg518
S'3'
sg519
F0
ssS'2'
(dp1453
g515
I100
sg516
S''
sg517
S'49'
p1454
sg518
S'2'
sg519
I16
ssS'5'
(dp1455
g515
I100
sg516
S'1'
sg517
g1415
sg518
S'5'
sg519
F0
ssS'4'
(dp1456
g515
I100
sg516
S'1'
sg517
g1415
sg518
S'4'
sg519
F0
ssS'7'
(dp1457
g515
I100
sg516
S'1'
sg517
g1415
sg518
S'7'
sg519
F0
ssS'6'
(dp1458
g515
I100
sg516
S'1'
sg517
g1415
sg518
S'6'
sg519
F0
ssS'9'
(dp1459
g515
I100
sg516
S'1'
sg517
g1415
sg518
S'9'
sg519
F0
ssS'8'
(dp1460
g515
I100
sg516
S'1'
sg517
g1415
sg518
S'8'
sg519
F0
sssg524
I0
sg525
F0
sg526
S'port'
p1461
sg498
F0
sg527
I0
sg528
I0
sg529
I0
sg530
I10
ssg938
(dp1462
g494
I0
sg503
I0
sg504
I0
sg505
I0
sg506
S''
sg508
I0
sg31
(dp1463
sg497
I0
sg510
I0
sg511
F9000
sg512
I0
sg36
(dp1464
S'10'
p1465
(dp1466
g515
I100
sg516
S''
sg517
S'8'
sg518
g1465
sg519
F0
ssS'1'
(dp1467
g515
I100
sg516
S''
sg517
S'2'
sg518
S'1'
sg519
F0
ssS'3'
(dp1468
g515
I100
sg516
S''
sg517
S'2'
sg518
S'3'
sg519
F0
ssS'2'
(dp1469
g515
I100
sg516
S''
sg517
S'2'
sg518
S'2'
sg519
F0
ssS'5'
(dp1470
g515
I100
sg516
S''
sg517
S'2'
sg518
S'5'
sg519
F0
ssS'4'
(dp1471
g515
I100
sg516
S''
sg517
S'2'
sg518
S'4'
sg519
F0
ssS'7'
(dp1472
g515
I100
sg516
S''
sg517
S'8'
sg518
S'7'
sg519
F0
ssS'6'
(dp1473
g515
I100
sg516
S''
sg517
S'5'
sg518
S'6'
sg519
F0
ssS'9'
(dp1474
g515
I100
sg516
S''
sg517
S'8'
sg518
S'9'
sg519
F0
ssS'8'
(dp1475
g515
I100
sg516
S''
sg517
S'8'
sg518
S'8'
sg519
F0
sssg524
I0
sg525
F80
sg526
S'fore'
p1476
sg498
F45
sg527
I0
sg528
I0
sg529
I400
sg530
I10
sssg570
F97.5
sg121
(lp1477
S'1'
aS'3'
aS'2'
aS'4'
aS'7'
aS'6'
aS'9'
aS'8'
asg518
g136
sg123
(lp1478
g9
ag161
ag230
ag294
ag358
ag422
asg573
I0
sg528
I0
sg574
F0
sg575
F2.3799999999999999
sg553
F700
sg525
F112
sg576
S'414'
p1479
sg578
S'2'
sg579
I-30
sg580
I3
sg581
S'5'
sg582
(lp1480
F80
aF8
aF2
aF2
asg584
I0
sg585
S'HCO18-SCOTTY-414'
p1481
sg504
I0
sg551
F0
sg587
g958
sg589
F36
sg511
F47100
sg590
I1
sg591
F-96.666666666666657
sg592
F-63.666666666666657
sg524
I0
ssg137
(dp1482
g494
I0
sg12
(lp1483
S'5'
asg496
S''
sg497
I0
sg498
F31.789999999999999
sg499
F1000
sg500
S'8'
sg22
(dp1484
g884
(dp1485
g494
I0
sg503
I0
sg504
I0
sg505
I0
sg506
S''
sg508
I0
sg31
(dp1486
S'1'
(dp1487
g548
S''
sg549
I0
sg550
I0
sg551
F0
sg552
F0.29999999999999999
sg553
F150
sg554
I400
sg555
I1
sg517
S'8'
sg518
S'1'
sg515
I400
sssg497
I0
sg510
I0
sg511
F6700
sg512
I0
sg36
(dp1488
g1413
(dp1489
g515
I100
sg516
S'1'
sg517
g1415
sg518
g1413
sg519
F0
ssS'5'
(dp1490
g515
I100
sg516
S''
sg517
S'8'
sg518
S'5'
sg519
F0
ssS'4'
(dp1491
g515
F100
sg516
S''
sg517
S'8'
sg518
S'4'
sg519
F0
ssS'7'
(dp1492
g515
I100
sg516
S'1'
sg517
g1415
sg518
S'7'
sg519
F0
ssS'6'
(dp1493
g515
I100
sg516
S''
sg517
S'8'
sg518
S'6'
sg519
F0
ssS'9'
(dp1494
g515
I100
sg516
S'1'
sg517
g1415
sg518
S'9'
sg519
F0
ssS'8'
(dp1495
g515
I100
sg516
S'1'
sg517
g1415
sg518
S'8'
sg519
F0
sssg524
I0
sg525
F0
sg526
g1425
sg498
F0
sg527
I0
sg528
I0
sg529
I300
sg530
I7
ssg900
(dp1496
g494
I0
sg503
I0
sg504
I0
sg505
I0
sg506
S''
sg508
I0
sg31
(dp1497
S'1'
(dp1498
g548
S''
sg549
I1
sg550
I0
sg551
F90
sg552
F3
sg553
F600
sg554
I800
sg555
I1
sg517
g1429
sg518
S'1'
sg515
I800
sssg497
I0
sg510
I0
sg511
F9800
sg512
I0
sg36
(dp1499
g1431
(dp1500
g515
I100
sg516
S'1'
sg517
g1415
sg518
g1431
sg519
F0
ssS'1'
(dp1501
g515
I100
sg516
S''
sg517
S'49'
p1502
sg518
S'1'
sg519
I16
ssS'3'
(dp1503
g515
I100
sg516
S'1'
sg517
g1415
sg518
S'3'
sg519
F0
ssS'2'
(dp1504
g515
I100
sg516
S''
sg517
g1435
sg518
S'2'
sg519
I16
ssS'5'
(dp1505
g515
I100
sg516
S'1'
sg517
g1415
sg518
S'5'
sg519
F0
ssS'4'
(dp1506
g515
I100
sg516
S'1'
sg517
g1415
sg518
S'4'
sg519
F0
ssS'7'
(dp1507
g515
I100
sg516
S'1'
sg517
g1415
sg518
S'7'
sg519
F0
ssS'6'
(dp1508
g515
I100
sg516
S'1'
sg517
g1415
sg518
S'6'
sg519
F0
ssS'9'
(dp1509
g515
I100
sg516
S'1'
sg517
g1415
sg518
S'9'
sg519
F0
ssS'8'
(dp1510
g515
I100
sg516
S'1'
sg517
g1415
sg518
S'8'
sg519
F0
sssg524
I0
sg525
F0
sg526
g1442
sg498
F0
sg527
I0
sg528
I0
sg529
I0
sg530
I10
ssg919
(dp1511
g494
I0
sg503
I0
sg504
I0
sg505
I0
sg506
S''
sg508
I0
sg31
(dp1512
S'1'
(dp1513
g548
S''
sg549
I1
sg550
I0
sg551
F270
sg552
F3
sg553
F600
sg554
I800
sg555
I1
sg517
g1446
sg518
S'1'
sg515
I800
sssg497
I0
sg510
I0
sg511
F9800
sg512
I0
sg36
(dp1514
g1448
(dp1515
g515
I100
sg516
S'1'
sg517
g1415
sg518
g1448
sg519
F0
ssS'1'
(dp1516
g515
I100
sg516
S''
sg517
g1451
sg518
S'1'
sg519
I5
ssS'3'
(dp1517
g515
I100
sg516
S'1'
sg517
g1415
sg518
S'3'
sg519
F0
ssS'2'
(dp1518
g515
I100
sg516
S''
sg517
g1454
sg518
S'2'
sg519
I16
ssS'5'
(dp1519
g515
I100
sg516
S'1'
sg517
g1415
sg518
S'5'
sg519
F0
ssS'4'
(dp1520
g515
I100
sg516
S'1'
sg517
g1415
sg518
S'4'
sg519
F0
ssS'7'
(dp1521
g515
I100
sg516
S'1'
sg517
g1415
sg518
S'7'
sg519
F0
ssS'6'
(dp1522
g515
I100
sg516
S'1'
sg517
g1415
sg518
S'6'
sg519
F0
ssS'9'
(dp1523
g515
I100
sg516
S'1'
sg517
g1415
sg518
S'9'
sg519
F0
ssS'8'
(dp1524
g515
I100
sg516
S'1'
sg517
g1415
sg518
S'8'
sg519
F0
sssg524
I0
sg525
F0
sg526
g1461
sg498
F0
sg527
I0
sg528
I0
sg529
I0
sg530
I10
ssg938
(dp1525
g494
I0
sg503
I0
sg504
I0
sg505
I0
sg506
S''
sg508
I0
sg31
(dp1526
sg497
I0
sg510
I0
sg511
F9000
sg512
I0
sg36
(dp1527
g1465
(dp1528
g515
I100
sg516
S''
sg517
S'8'
sg518
g1465
sg519
F0
ssS'1'
(dp1529
g515
I100
sg516
S''
sg517
S'2'
sg518
S'1'
sg519
F0
ssS'3'
(dp1530
g515
I100
sg516
S''
sg517
S'2'
sg518
S'3'
sg519
F0
ssS'2'
(dp1531
g515
I100
sg516
S''
sg517
S'2'
sg518
S'2'
sg519
F0
ssS'5'
(dp1532
g515
I100
sg516
S''
sg517
S'2'
sg518
S'5'
sg519
F0
ssS'4'
(dp1533
g515
I100
sg516
S''
sg517
S'2'
sg518
S'4'
sg519
F0
ssS'7'
(dp1534
g515
I100
sg516
S''
sg517
S'8'
sg518
S'7'
sg519
F0
ssS'6'
(dp1535
g515
I100
sg516
S''
sg517
S'5'
sg518
S'6'
sg519
F0
ssS'9'
(dp1536
g515
I100
sg516
S''
sg517
S'8'
sg518
S'9'
sg519
F0
ssS'8'
(dp1537
g515
I100
sg516
S''
sg517
S'8'
sg518
S'8'
sg519
F0
sssg524
I0
sg525
F80
sg526
g1476
sg498
F45
sg527
I0
sg528
I0
sg529
I400
sg530
I10
sssg570
F92.5
sg121
(lp1538
S'1'
aS'3'
aS'2'
aS'4'
aS'7'
aS'6'
aS'9'
aS'8'
asg518
g137
sg123
(lp1539
g9
ag161
ag230
ag294
ag358
ag422
asg573
I0
sg528
I0
sg574
F0
sg575
F1.77
sg553
F700
sg525
F80
sg576
S'415'
p1540
sg578
S'2'
sg579
I0
sg580
I0
sg581
S'5'
sg582
(lp1541
F600
aF60
aF30
aF0
asg584
I0
sg585
S'HCO18-SCOTTY-415'
p1542
sg504
I0
sg551
F0
sg587
g958
sg589
F36
sg511
F45300
sg590
I1
sg591
F-66.666666666666657
sg592
F-66.666666666666657
sg524
I0
ssg138
(dp1543
g494
I0
sg12
(lp1544
S'5'
asg496
S''
sg497
I0
sg498
F60
sg499
F1000
sg500
S'8'
sg22
(dp1545
g884
(dp1546
g494
I0
sg503
I0
sg504
I0
sg505
I0
sg506
S''
sg508
I0
sg31
(dp1547
S'1'
(dp1548
g548
S''
sg549
I0
sg550
I0
sg551
F0
sg552
F0.29999999999999999
sg553
F150
sg554
I400
sg555
I1
sg517
S'8'
sg518
S'1'
sg515
I400
sssg497
I0
sg510
I0
sg511
F9400
sg512
I0
sg36
(dp1549
g1413
(dp1550
g515
I100
sg516
S'1'
sg517
g1415
sg518
g1413
sg519
F0
ssS'1'
(dp1551
g515
I100
sg516
S''
sg517
S'2'
sg518
S'1'
sg519
F0
ssS'3'
(dp1552
g515
I100
sg516
S''
sg517
S'5'
sg518
S'3'
sg519
F0
ssS'2'
(dp1553
g515
I100
sg516
S''
sg517
S'2'
sg518
S'2'
sg519
F0
ssS'5'
(dp1554
g515
I100
sg516
S''
sg517
S'8'
sg518
S'5'
sg519
F0
ssS'4'
(dp1555
g515
I100
sg516
S''
sg517
S'8'
sg518
S'4'
sg519
F0
ssS'7'
(dp1556
g515
I100
sg516
S'1'
sg517
g1415
sg518
S'7'
sg519
F0
ssS'6'
(dp1557
g515
I100
sg516
S''
sg517
S'8'
sg518
S'6'
sg519
F0
ssS'9'
(dp1558
g515
I100
sg516
S'1'
sg517
g1415
sg518
S'9'
sg519
F0
ssS'8'
(dp1559
g515
I100
sg516
S'1'
sg517
g1415
sg518
S'8'
sg519
F0
sssg524
I0
sg525
F32
sg526
g1425
sg498
F45
sg527
I0
sg528
I0
sg529
I300
sg530
I10
ssg900
(dp1560
g494
I0
sg503
I0
sg504
I0
sg505
I0
sg506
S''
sg508
I0
sg31
(dp1561
S'1'
(dp1562
g548
S''
sg549
I1
sg550
I0
sg551
F90
sg552
F3
sg553
F600
sg554
I800
sg555
I1
sg517
g1429
sg518
S'1'
sg515
I800
sssg497
I0
sg510
I0
sg511
F9800
sg512
I0
sg36
(dp1563
g1431
(dp1564
g515
I100
sg516
S'1'
sg517
g1415
sg518
g1431
sg519
F0
ssS'1'
(dp1565
g515
I100
sg516
S''
sg517
g1502
sg518
S'1'
sg519
I16
ssS'3'
(dp1566
g515
I100
sg516
S'1'
sg517
g1415
sg518
S'3'
sg519
F0
ssS'2'
(dp1567
g515
I100
sg516
S''
sg517
g1435
sg518
S'2'
sg519
I16
ssS'5'
(dp1568
g515
I100
sg516
S'1'
sg517
g1415
sg518
S'5'
sg519
F0
ssS'4'
(dp1569
g515
I100
sg516
S'1'
sg517
g1415
sg518
S'4'
sg519
F0
ssS'7'
(dp1570
g515
I100
sg516
S'1'
sg517
g1415
sg518
S'7'
sg519
F0
ssS'6'
(dp1571
g515
I100
sg516
S'1'
sg517
g1415
sg518
S'6'
sg519
F0
ssS'9'
(dp1572
g515
I100
sg516
S'1'
sg517
g1415
sg518
S'9'
sg519
F0
ssS'8'
(dp1573
g515
I100
sg516
S'1'
sg517
g1415
sg518
S'8'
sg519
F0
sssg524
I0
sg525
F0
sg526
g1442
sg498
F0
sg527
I0
sg528
I0
sg529
I0
sg530
I10
ssg919
(dp1574
g494
I0
sg503
I0
sg504
I0
sg505
I0
sg506
S''
sg508
I0
sg31
(dp1575
S'1'
(dp1576
g548
S''
sg549
I1
sg550
I0
sg551
F270
sg552
F3
sg553
F600
sg554
I800
sg555
I1
sg517
g1446
sg518
S'1'
sg515
I800
sssg497
I0
sg510
I0
sg511
F9800
sg512
I0
sg36
(dp1577
g1448
(dp1578
g515
I100
sg516
S'1'
sg517
g1415
sg518
g1448
sg519
F0
ssS'1'
(dp1579
g515
I100
sg516
S''
sg517
g1451
sg518
S'1'
sg519
I9
ssS'3'
(dp1580
g515
I100
sg516
S'1'
sg517
g1415
sg518
S'3'
sg519
F0
ssS'2'
(dp1581
g515
I100
sg516
S''
sg517
g1454
sg518
S'2'
sg519
I16
ssS'5'
(dp1582
g515
I100
sg516
S'1'
sg517
g1415
sg518
S'5'
sg519
F0
ssS'4'
(dp1583
g515
I100
sg516
S'1'
sg517
g1415
sg518
S'4'
sg519
F0
ssS'7'
(dp1584
g515
I100
sg516
S'1'
sg517
g1415
sg518
S'7'
sg519
F0
ssS'6'
(dp1585
g515
I100
sg516
S'1'
sg517
g1415
sg518
S'6'
sg519
F0
ssS'9'
(dp1586
g515
I100
sg516
S'1'
sg517
g1415
sg518
S'9'
sg519
F0
ssS'8'
(dp1587
g515
I100
sg516
S'1'
sg517
g1415
sg518
S'8'
sg519
F0
sssg524
I0
sg525
F0
sg526
g1461
sg498
F0
sg527
I0
sg528
I0
sg529
I0
sg530
I10
ssg938
(dp1588
g494
I0
sg503
I0
sg504
I0
sg505
I0
sg506
S''
sg508
I0
sg31
(dp1589
sg497
I0
sg510
I0
sg511
F9000
sg512
I0
sg36
(dp1590
g1465
(dp1591
g515
I100
sg516
S''
sg517
S'8'
sg518
g1465
sg519
F0
ssS'1'
(dp1592
g515
I100
sg516
S''
sg517
S'2'
sg518
S'1'
sg519
F0
ssS'3'
(dp1593
g515
I100
sg516
S''
sg517
S'2'
sg518
S'3'
sg519
F0
ssS'2'
(dp1594
g515
I100
sg516
S''
sg517
S'2'
sg518
S'2'
sg519
F0
ssS'5'
(dp1595
g515
I100
sg516
S''
sg517
S'2'
sg518
S'5'
sg519
F0
ssS'4'
(dp1596
g515
I100
sg516
S''
sg517
S'2'
sg518
S'4'
sg519
F0
ssS'7'
(dp1597
g515
I100
sg516
S''
sg517
S'8'
sg518
S'7'
sg519
F0
ssS'6'
(dp1598
g515
I100
sg516
S''
sg517
S'5'
sg518
S'6'
sg519
F0
ssS'9'
(dp1599
g515
I100
sg516
S''
sg517
S'8'
sg518
S'9'
sg519
F0
ssS'8'
(dp1600
g515
I100
sg516
S''
sg517
S'8'
sg518
S'8'
sg519
F0
sssg524
I0
sg525
F80
sg526
g1476
sg498
F45
sg527
I0
sg528
I0
sg529
I400
sg530
I10
sssg570
F100
sg121
(lp1601
S'1'
aS'3'
aS'2'
aS'4'
aS'7'
aS'6'
aS'9'
aS'8'
asg518
g138
sg123
(lp1602
g9
ag161
ag230
ag294
ag358
ag422
asg573
I0
sg528
I0
sg574
F0
sg575
F2.3300000000000001
sg553
F700
sg525
F112
sg576
S'416'
p1603
sg578
S'2'
sg579
I-30
sg580
I-1
sg581
S'5'
sg582
(lp1604
I0
aI0
aI0
aI0
asg584
I0
sg585
S'HCO18-SCOTTY-416'
p1605
sg504
I0
sg551
F0
sg587
g958
sg589
F36
sg511
F48000
sg590
I1
sg591
F-96.666666666666657
sg592
F-67.666666666666657
sg524
I0
ssg139
(dp1606
g494
I0
sg12
(lp1607
S'5'
asg496
S''
sg497
I0
sg498
F60
sg499
F1000
sg500
S'8'
sg22
(dp1608
g884
(dp1609
g494
I0
sg503
I0
sg504
I0
sg505
I0
sg506
S''
sg508
I0
sg31
(dp1610
S'1'
(dp1611
g548
S''
sg549
I0
sg550
I0
sg551
F0
sg552
F0.29999999999999999
sg553
F150
sg554
I400
sg555
I1
sg517
S'8'
sg518
S'1'
sg515
I400
sssg497
I0
sg510
I0
sg511
F9400
sg512
I0
sg36
(dp1612
g1413
(dp1613
g515
I100
sg516
S'1'
sg517
g1415
sg518
g1413
sg519
F0
ssS'1'
(dp1614
g515
I100
sg516
S''
sg517
S'2'
sg518
S'1'
sg519
F0
ssS'3'
(dp1615
g515
I100
sg516
S''
sg517
S'5'
sg518
S'3'
sg519
F0
ssS'2'
(dp1616
g515
I100
sg516
S''
sg517
S'2'
sg518
S'2'
sg519
F0
ssS'5'
(dp1617
g515
I100
sg516
S''
sg517
S'8'
sg518
S'5'
sg519
F0
ssS'4'
(dp1618
g515
I100
sg516
S''
sg517
S'8'
sg518
S'4'
sg519
F0
ssS'7'
(dp1619
g515
I100
sg516
S'1'
sg517
g1415
sg518
S'7'
sg519
F0
ssS'6'
(dp1620
g515
I100
sg516
S''
sg517
S'8'
sg518
S'6'
sg519
F0
ssS'9'
(dp1621
g515
I100
sg516
S'1'
sg517
g1415
sg518
S'9'
sg519
F0
ssS'8'
(dp1622
g515
I100
sg516
S'1'
sg517
g1415
sg518
S'8'
sg519
F0
sssg524
I0
sg525
F32
sg526
g1425
sg498
F45
sg527
I0
sg528
I0
sg529
I300
sg530
I10
ssg900
(dp1623
g494
I0
sg503
I0
sg504
I0
sg505
I0
sg506
S''
sg508
I0
sg31
(dp1624
S'1'
(dp1625
g548
S''
sg549
I1
sg550
I0
sg551
F90
sg552
F3
sg553
F600
sg554
I800
sg555
I1
sg517
g1429
sg518
S'1'
sg515
I800
sssg497
I0
sg510
I0
sg511
F9800
sg512
I0
sg36
(dp1626
g1431
(dp1627
g515
I100
sg516
S'1'
sg517
g1415
sg518
g1431
sg519
F0
ssS'1'
(dp1628
g515
I100
sg516
S''
sg517
g1502
sg518
S'1'
sg519
I16
ssS'3'
(dp1629
g515
I100
sg516
S'1'
sg517
g1415
sg518
S'3'
sg519
F0
ssS'2'
(dp1630
g515
I100
sg516
S''
sg517
g1435
sg518
S'2'
sg519
I16
ssS'5'
(dp1631
g515
I100
sg516
S'1'
sg517
g1415
sg518
S'5'
sg519
F0
ssS'4'
(dp1632
g515
I100
sg516
S'1'
sg517
g1415
sg518
S'4'
sg519
F0
ssS'7'
(dp1633
g515
I100
sg516
S'1'
sg517
g1415
sg518
S'7'
sg519
F0
ssS'6'
(dp1634
g515
I100
sg516
S'1'
sg517
g1415
sg518
S'6'
sg519
F0
ssS'9'
(dp1635
g515
I100
sg516
S'1'
sg517
g1415
sg518
S'9'
sg519
F0
ssS'8'
(dp1636
g515
I100
sg516
S'1'
sg517
g1415
sg518
S'8'
sg519
F0
sssg524
I0
sg525
F0
sg526
g1442
sg498
F0
sg527
I0
sg528
I0
sg529
I0
sg530
I10
ssg919
(dp1637
g494
I0
sg503
I0
sg504
I0
sg505
I0
sg506
S''
sg508
I0
sg31
(dp1638
S'1'
(dp1639
g548
S''
sg549
I1
sg550
I0
sg551
F270
sg552
F3
sg553
F600
sg554
I800
sg555
I1
sg517
g1446
sg518
S'1'
sg515
I800
sssg497
I0
sg510
I0
sg511
F9800
sg512
I0
sg36
(dp1640
g1448
(dp1641
g515
I100
sg516
S'1'
sg517
g1415
sg518
g1448
sg519
F0
ssS'1'
(dp1642
g515
I100
sg516
S''
sg517
g1451
sg518
S'1'
sg519
I9
ssS'3'
(dp1643
g515
I100
sg516
S'1'
sg517
g1415
sg518
S'3'
sg519
F0
ssS'2'
(dp1644
g515
I100
sg516
S''
sg517
g1454
sg518
S'2'
sg519
I16
ssS'5'
(dp1645
g515
I100
sg516
S'1'
sg517
g1415
sg518
S'5'
sg519
F0
ssS'4'
(dp1646
g515
I100
sg516
S'1'
sg517
g1415
sg518
S'4'
sg519
F0
ssS'7'
(dp1647
g515
I100
sg516
S'1'
sg517
g1415
sg518
S'7'
sg519
F0
ssS'6'
(dp1648
g515
I100
sg516
S'1'
sg517
g1415
sg518
S'6'
sg519
F0
ssS'9'
(dp1649
g515
I100
sg516
S'1'
sg517
g1415
sg518
S'9'
sg519
F0
ssS'8'
(dp1650
g515
I100
sg516
S'1'
sg517
g1415
sg518
S'8'
sg519
F0
sssg524
I0
sg525
F0
sg526
g1461
sg498
F0
sg527
I0
sg528
I0
sg529
I0
sg530
I10
ssg938
(dp1651
g494
I0
sg503
I0
sg504
I0
sg505
I0
sg506
S''
sg508
I0
sg31
(dp1652
sg497
I0
sg510
I0
sg511
F9000
sg512
I0
sg36
(dp1653
g1465
(dp1654
g515
I100
sg516
S''
sg517
S'8'
sg518
g1465
sg519
F0
ssS'1'
(dp1655
g515
I100
sg516
S''
sg517
S'2'
sg518
S'1'
sg519
F0
ssS'3'
(dp1656
g515
I100
sg516
S''
sg517
S'2'
sg518
S'3'
sg519
F0
ssS'2'
(dp1657
g515
I100
sg516
S''
sg517
S'2'
sg518
S'2'
sg519
F0
ssS'5'
(dp1658
g515
I100
sg516
S''
sg517
S'2'
sg518
S'5'
sg519
F0
ssS'4'
(dp1659
g515
I100
sg516
S''
sg517
S'2'
sg518
S'4'
sg519
F0
ssS'7'
(dp1660
g515
I100
sg516
S''
sg517
S'8'
sg518
S'7'
sg519
F0
ssS'6'
(dp1661
g515
I100
sg516
S''
sg517
S'5'
sg518
S'6'
sg519
F0
ssS'9'
(dp1662
g515
I100
sg516
S''
sg517
S'8'
sg518
S'9'
sg519
F0
ssS'8'
(dp1663
g515
I100
sg516
S''
sg517
S'8'
sg518
S'8'
sg519
F0
sssg524
I0
sg525
F80
sg526
g1476
sg498
F45
sg527
I0
sg528
I0
sg529
I400
sg530
I10
sssg570
F100
sg121
(lp1664
S'1'
aS'3'
aS'2'
aS'4'
aS'7'
aS'6'
aS'9'
aS'8'
asg518
g139
sg123
(lp1665
g9
ag161
ag230
ag294
ag358
ag422
asg573
I0
sg528
I0
sg574
F0
sg575
F2.3300000000000001
sg553
F700
sg525
F112
sg576
S'417'
p1666
sg578
S'2'
sg579
I-16
sg580
I-29
sg581
S'5'
sg582
(lp1667
I0
aI0
aI0
aI0
asg584
I0
sg585
S'HCO18-SCOTTY-417'
p1668
sg504
I0
sg551
F0
sg587
g958
sg589
F36
sg511
F48000
sg590
I1
sg591
F-82.666666666666657
sg592
F-95.666666666666657
sg524
I0
ssg140
(dp1669
g494
I0
sg12
(lp1670
S'5'
asg496
S''
sg497
I0
sg498
F60
sg499
F1000
sg500
S'8'
sg22
(dp1671
g884
(dp1672
g494
I0
sg503
I0
sg504
I0
sg505
I0
sg506
S''
sg508
I0
sg31
(dp1673
S'1'
(dp1674
g548
S''
sg549
I0
sg550
I0
sg551
F0
sg552
F0.29999999999999999
sg553
F150
sg554
I400
sg555
I1
sg517
S'8'
sg518
S'1'
sg515
I400
sssg497
I0
sg510
I0
sg511
F9400
sg512
I0
sg36
(dp1675
g1413
(dp1676
g515
I100
sg516
S'1'
sg517
g1415
sg518
g1413
sg519
F0
ssS'1'
(dp1677
g515
I100
sg516
S''
sg517
S'2'
sg518
S'1'
sg519
F0
ssS'3'
(dp1678
g515
I100
sg516
S''
sg517
S'5'
sg518
S'3'
sg519
F0
ssS'2'
(dp1679
g515
I100
sg516
S''
sg517
S'2'
sg518
S'2'
sg519
F0
ssS'5'
(dp1680
g515
I100
sg516
S''
sg517
S'8'
sg518
S'5'
sg519
F0
ssS'4'
(dp1681
g515
I100
sg516
S''
sg517
S'8'
sg518
S'4'
sg519
F0
ssS'7'
(dp1682
g515
I100
sg516
S'1'
sg517
g1415
sg518
S'7'
sg519
F0
ssS'6'
(dp1683
g515
I100
sg516
S''
sg517
S'8'
sg518
S'6'
sg519
F0
ssS'9'
(dp1684
g515
I100
sg516
S'1'
sg517
g1415
sg518
S'9'
sg519
F0
ssS'8'
(dp1685
g515
I100
sg516
S'1'
sg517
g1415
sg518
S'8'
sg519
F0
sssg524
I0
sg525
F32
sg526
g1425
sg498
F45
sg527
I0
sg528
I0
sg529
I300
sg530
I10
ssg900
(dp1686
g494
I0
sg503
I0
sg504
I0
sg505
I0
sg506
S''
sg508
I0
sg31
(dp1687
S'1'
(dp1688
g548
S''
sg549
I1
sg550
I0
sg551
F90
sg552
F3
sg553
F600
sg554
I800
sg555
I1
sg517
g1429
sg518
S'1'
sg515
I800
sssg497
I0
sg510
I0
sg511
F9800
sg512
I0
sg36
(dp1689
g1431
(dp1690
g515
I100
sg516
S'1'
sg517
g1415
sg518
g1431
sg519
F0
ssS'1'
(dp1691
g515
I100
sg516
S''
sg517
g1502
sg518
S'1'
sg519
I16
ssS'3'
(dp1692
g515
I100
sg516
S'1'
sg517
g1415
sg518
S'3'
sg519
F0
ssS'2'
(dp1693
g515
I100
sg516
S''
sg517
g1435
sg518
S'2'
sg519
I16
ssS'5'
(dp1694
g515
I100
sg516
S'1'
sg517
g1415
sg518
S'5'
sg519
F0
ssS'4'
(dp1695
g515
I100
sg516
S'1'
sg517
g1415
sg518
S'4'
sg519
F0
ssS'7'
(dp1696
g515
I100
sg516
S'1'
sg517
g1415
sg518
S'7'
sg519
F0
ssS'6'
(dp1697
g515
I100
sg516
S'1'
sg517
g1415
sg518
S'6'
sg519
F0
ssS'9'
(dp1698
g515
I100
sg516
S'1'
sg517
g1415
sg518
S'9'
sg519
F0
ssS'8'
(dp1699
g515
I100
sg516
S'1'
sg517
g1415
sg518
S'8'
sg519
F0
sssg524
I0
sg525
F0
sg526
g1442
sg498
F0
sg527
I0
sg528
I0
sg529
I0
sg530
I10
ssg919
(dp1700
g494
I0
sg503
I0
sg504
I0
sg505
I0
sg506
S''
sg508
I0
sg31
(dp1701
S'1'
(dp1702
g548
S''
sg549
I1
sg550
I0
sg551
F270
sg552
F3
sg553
F600
sg554
I800
sg555
I1
sg517
g1446
sg518
S'1'
sg515
I800
sssg497
I0
sg510
I0
sg511
F8900
sg512
I0
sg36
(dp1703
g1448
(dp1704
g515
I100
sg516
S'1'
sg517
g1415
sg518
g1448
sg519
F0
ssS'3'
(dp1705
g515
I100
sg516
S'1'
sg517
g1415
sg518
S'3'
sg519
F0
ssS'2'
(dp1706
g515
F50
sg516
S''
sg517
g1454
sg518
S'2'
sg519
I12
ssS'5'
(dp1707
g515
I100
sg516
S'1'
sg517
g1415
sg518
S'5'
sg519
F0
ssS'4'
(dp1708
g515
I100
sg516
S'1'
sg517
g1415
sg518
S'4'
sg519
F0
ssS'7'
(dp1709
g515
I100
sg516
S'1'
sg517
g1415
sg518
S'7'
sg519
F0
ssS'6'
(dp1710
g515
I100
sg516
S'1'
sg517
g1415
sg518
S'6'
sg519
F0
ssS'9'
(dp1711
g515
I100
sg516
S'1'
sg517
g1415
sg518
S'9'
sg519
F0
ssS'8'
(dp1712
g515
I100
sg516
S'1'
sg517
g1415
sg518
S'8'
sg519
F0
sssg524
I0
sg525
I0
sg526
g1461
sg498
I0
sg527
I0
sg528
I0
sg529
I0
sg530
I9
ssg938
(dp1713
g494
I0
sg503
I0
sg504
I0
sg505
I0
sg506
S''
sg508
I0
sg31
(dp1714
sg497
I0
sg510
I0
sg511
F9000
sg512
I0
sg36
(dp1715
g1465
(dp1716
g515
I100
sg516
S''
sg517
S'8'
sg518
g1465
sg519
F0
ssS'1'
(dp1717
g515
I100
sg516
S''
sg517
S'2'
sg518
S'1'
sg519
F0
ssS'3'
(dp1718
g515
I100
sg516
S''
sg517
S'2'
sg518
S'3'
sg519
F0
ssS'2'
(dp1719
g515
I100
sg516
S''
sg517
S'2'
sg518
S'2'
sg519
F0
ssS'5'
(dp1720
g515
I100
sg516
S''
sg517
S'2'
sg518
S'5'
sg519
F0
ssS'4'
(dp1721
g515
I100
sg516
S''
sg517
S'2'
sg518
S'4'
sg519
F0
ssS'7'
(dp1722
g515
I100
sg516
S''
sg517
S'8'
sg518
S'7'
sg519
F0
ssS'6'
(dp1723
g515
I100
sg516
S''
sg517
S'5'
sg518
S'6'
sg519
F0
ssS'9'
(dp1724
g515
I100
sg516
S''
sg517
S'8'
sg518
S'9'
sg519
F0
ssS'8'
(dp1725
g515
I100
sg516
S''
sg517
S'8'
sg518
S'8'
sg519
F0
sssg524
I0
sg525
F80
sg526
g1476
sg498
F45
sg527
I0
sg528
I0
sg529
I400
sg530
I10
sssg570
F97.5
sg121
(lp1726
S'1'
aS'3'
aS'2'
aS'4'
aS'7'
aS'6'
aS'9'
aS'8'
asg518
g140
sg123
(lp1727
g9
ag161
ag230
ag294
ag358
ag422
asg573
I0
sg528
I0
sg574
F0
sg575
F2.3799999999999999
sg553
F700
sg525
F112
sg576
S'418'
p1728
sg578
S'2'
sg579
I-17
sg580
I-7
sg581
S'5'
sg582
(lp1729
F80
aF8
aF2
aF2
asg584
I0
sg585
S'HCO18-SCOTTY-418'
p1730
sg504
I0
sg551
F0
sg587
g958
sg589
F36
sg511
F47100
sg590
I1
sg591
F-83.666666666666657
sg592
F-73.666666666666657
sg524
I0
sssS'captainsDict'
p1731
(dp1732
g145
(dp1733
g153
S'Ylo Awsonzalv'
p1734
sS'rankID'
p1735
I0
sS'rank'
p1736
S'Rookie'
p1737
sS'experience'
p1738
F0
sS'myShipID'
p1739
g9
sg146
S'0'
sg43
g145
ssg227
(dp1740
g153
S'Then Nicersons'
p1741
sg1735
I0
sg1736
g1737
sg1738
F0
sg1739
g161
sg146
S'0'
sg43
g227
ssg291
(dp1742
g153
S'Rmson Ghartso'
p1743
sg1735
I0
sg1736
g1737
sg1738
F0
sg1739
g230
sg146
S'0'
sg43
g291
ssg355
(dp1744
g153
S'Nalesting Yersonz'
p1745
sg1735
I0
sg1736
g1737
sg1738
F0
sg1739
g294
sg146
S'0'
sg43
g355
ssg419
(dp1746
g153
S'Oleynoll Ixonz'
p1747
sg1735
I0
sg1736
g1737
sg1738
F0
sg1739
g358
sg146
S'0'
sg43
g419
ssg489
(dp1748
g153
S'Smiteree Ylorg'
p1749
sg1735
I0
sg1736
g1737
sg1738
F0
sg1739
g422
sg146
S'0'
sg43
g489
ssg577
(dp1750
g585
S'Owarnerr Nners'
p1751
sS'rankID'
p1752
I0
sS'rank'
p1753
S'Rookie'
p1754
sS'experience'
p1755
F0
sS'myShipID'
p1756
g125
sg578
S'2'
sg518
g577
ssg633
(dp1757
g585
S'Ireyestep Willawkin'
p1758
sg1752
I0
sg1753
g1754
sg1755
F0
sg1756
g126
sg578
S'2'
sg518
g633
ssg676
(dp1759
g585
S'Nzal Ffisheell'
p1760
sg1752
I0
sg1753
g1754
sg1755
F0
sg1756
g127
sg578
S'2'
sg518
g676
ssg797
(dp1761
g585
S'Avez Senstonson'
p1762
sg1752
I1
sg1753
S'Cadet'
p1763
sg1755
F100
sg1756
g128
sg578
S'2'
sg518
g797
ssg878
(dp1764
g585
S'Liamey Urnander'
p1765
sg1752
I1
sg1753
g1763
sg1755
F100
sg1756
g129
sg578
S'2'
sg518
g878
ssg955
(dp1766
g585
S'Phy Crawric'
p1767
sg1752
I1
sg1753
g1763
sg1755
F100
sg1756
g130
sg578
S'2'
sg518
g955
ssg1095
(dp1768
g585
S'Brone Marter'
p1769
sg1752
I1
sg1753
g1763
sg1755
F100
sg1756
g131
sg578
S'2'
sg518
g1095
ssg1184
(dp1770
g585
S'Gtongton Rriff'
p1771
sg1752
I1
sg1753
g1763
sg1755
F100
sg1756
g132
sg578
S'2'
sg518
g1184
ssg1272
(dp1772
g585
S'Rodso Trosellinso'
p1773
sg1752
I1
sg1753
g1763
sg1755
F100
sg1756
g133
sg578
S'2'
sg518
g1272
ssg1360
(dp1774
g585
S'Rkingtons Mostill'
p1775
sg1752
I1
sg1753
g1763
sg1755
F100
sg1756
g134
sg578
S'2'
sg518
g1360
ssg1403
(dp1776
g585
S'Ounght Cards'
p1777
sg1752
I0
sg1753
g1754
sg1755
F0
sg1756
g135
sg578
S'2'
sg518
g1403
ssg1479
(dp1778
g585
S'Hunner Stephes'
p1779
sg1752
I1
sg1753
g1763
sg1755
F178
sg1756
g136
sg578
S'2'
sg518
g1479
ssg1540
(dp1780
g585
S'Donsell Sterking'
p1781
sg1752
I1
sg1753
g1763
sg1755
F208
sg1756
g137
sg578
S'2'
sg518
g1540
ssg1603
(dp1782
g585
S'Eavender Rkinghan'
p1783
sg1752
I1
sg1753
g1763
sg1755
F124
sg1756
g138
sg578
S'2'
sg518
g1603
ssg1666
(dp1784
g585
S'Dsonght Moreyest'
p1785
sg1752
I1
sg1753
g1763
sg1755
F172
sg1756
g139
sg578
S'2'
sg518
g1666
ssg1728
(dp1786
g585
S'Yountgon Ltontg'
p1787
sg1752
I1
sg1753
g1763
sg1755
F202
sg1756
g140
sg578
S'2'
sg518
g1728
sssS'cities'
p1788
I10
sS'defaultAttributes'
p1789
(g518
S'systemID'
p1790
g578
S'systemName'
p1791
g1788
S'x'
S'y'
S'round'
p1792
S'seed'
p1793
tp1794
sS'regimentsExposed'
p1795
(dp1796
S'2-5'
p1797
I33
ssS'weapondata'
p1798
(dp1799
sg1792
I10
sS'componentdata'
p1800
(dp1801
sS'empiresDict'
p1802
(dp1803
S'0'
(dp1804
S'imageFile'
p1805
S''
sg585
S'Neutral'
p1806
sS'droneDesigns'
p1807
(dp1808
S'1'
(dp1809
g11
I0
sS'costEC'
p1810
F52
sS'costAL'
p1811
F68
sS'obsolete'
p1812
I0
sg18
I0
sg60
F100
sS'totalAMSPower'
p1813
F0
sg22
(dp1814
g105
(dp1815
g11
I0
sg26
I0
sg27
I0
sg28
I0
sg29
S''
sg30
I2
sg31
(dp1816
S'1'
(dp1817
g66
S''
sg67
I0
sg68
F0
sg69
F0
sg70
F2
sg71
F0
sg72
I200
sg73
I1
sg42
S'1'
sg43
S'1'
sg40
I200
sssg18
I0
sg33
I200
sg34
F8000
sg35
I0
sg36
(dp1818
S'1'
(dp1819
g40
I50
sg41
S''
sg42
S'7'
sg43
S'1'
sg44
F0
ssS'3'
(dp1820
g40
I50
sg41
S''
sg42
g523
sg43
S'3'
sg44
F0
ssS'2'
(dp1821
g40
I50
sg41
S''
sg42
S'7'
sg43
S'2'
sg44
F0
ssS'5'
(dp1822
g40
I50
sg41
S'1'
sg42
g79
sg43
S'5'
sg44
F0
ssS'4'
(dp1823
g40
I50
sg41
S''
sg42
g523
sg43
S'4'
sg44
F0
ssS'7'
(dp1824
g40
I50
sg41
S'1'
sg42
g79
sg43
S'7'
sg44
F0
ssS'6'
(dp1825
g40
I50
sg41
S'1'
sg42
g79
sg43
S'6'
sg44
F0
ssS'8'
(dp1826
g40
I50
sg41
S'1'
sg42
g79
sg43
S'8'
sg44
F0
sssg55
I0
sg56
F0
sg57
g105
sg19
F0
sg58
I0
sg59
I0
sg60
I100
sg61
I8
sssS'costIA'
p1827
F22
sS'amsFireRate'
p1828
F0
sS'costCR'
p1829
F1280
sS'totalWeapPower'
p1830
F200
sg43
S'1'
sS'abr'
p1831
S'LND-LPG0'
p1832
sS'techReq'
p1833
S''
sg59
I0
sS'description'
p1834
S''
sS'weapFireRate'
p1835
F2
sg143
F5
sS'shipHullID'
p1836
S'101'
p1837
sg56
F0
sg19
F60
sg153
S'LND1-Neutral-LND'
p1838
sg27
F0
sg34
F9000
sg55
I0
ssS'3'
(dp1839
g11
I0
sg1810
F198
sg1811
F228
sg1812
I0
sg18
I0
sg60
F800
sg1813
F0
sg22
(dp1840
g105
(dp1841
g11
I0
sg26
I0
sg27
I0
sg28
I0
sg29
S''
sg30
I12
sg31
(dp1842
S'1'
(dp1843
g66
S''
sg67
I0
sg68
F0
sg69
F0
sg70
F2
sg71
F0
sg72
I200
sg73
I1
sg42
S'1'
sg43
S'1'
sg40
I200
sssg18
I0
sg33
I1200
sg34
F10400
sg35
I0
sg36
(dp1844
S'11'
p1845
(dp1846
g40
I50
sg41
S'1'
sg42
g79
sg43
g1845
sg44
F0
ssS'10'
p1847
(dp1848
g40
I50
sg41
S'1'
sg42
g79
sg43
g1847
sg44
F0
ssS'12'
p1849
(dp1850
g40
I50
sg41
S'1'
sg42
g79
sg43
g1849
sg44
F0
ssS'1'
(dp1851
g40
I200
sg41
S''
sg42
S'9'
sg43
S'1'
sg44
F0
ssS'3'
(dp1852
g40
I200
sg41
S''
sg42
S'9'
sg43
S'3'
sg44
F0
ssS'2'
(dp1853
g40
I200
sg41
S''
sg42
S'9'
sg43
S'2'
sg44
F0
ssS'5'
(dp1854
g40
I200
sg41
S''
sg42
S'27'
p1855
sg43
S'5'
sg44
F0
ssS'4'
(dp1856
g40
I200
sg41
S''
sg42
S'9'
sg43
S'4'
sg44
F0
ssS'7'
(dp1857
g40
I200
sg41
S''
sg42
g1855
sg43
S'7'
sg44
F0
ssS'6'
(dp1858
g40
I200
sg41
S''
sg42
g1855
sg43
S'6'
sg44
F0
ssS'9'
(dp1859
g40
I50
sg41
S'1'
sg42
g79
sg43
S'9'
sg44
F0
ssS'8'
(dp1860
g40
I200
sg41
S''
sg42
g1855
sg43
S'8'
sg44
F0
sssg55
I0
sg56
F0
sg57
g105
sg19
F0
sg58
I0
sg59
I0
sg60
I800
sg61
I12
sssg1827
F32
sg1828
F0
sg1829
F3680
sg1830
F200
sg43
S'3'
sg1831
S'LPD-LPG0'
p1861
sg1833
S''
sg59
I0
sg1834
S''
sg1835
F0.25
sg143
F5
sg1836
S'107'
p1862
sg56
F0
sg19
F60
sg153
S'LPD3-Neutral-LPD'
p1863
sg27
F0
sg34
F11400
sg55
I0
ssS'2'
(dp1864
g11
I0
sg1810
F93
sg1811
F134
sg1812
I0
sg18
I0
sg60
F300
sg1813
F0
sg22
(dp1865
g105
(dp1866
g11
I0
sg26
I0
sg27
I0
sg28
I0
sg29
S''
sg30
I6
sg31
(dp1867
S'1'
(dp1868
g66
S''
sg67
I0
sg68
F0
sg69
F0
sg70
F2
sg71
F0
sg72
I200
sg73
I1
sg42
S'1'
sg43
S'1'
sg40
I200
sssg18
I0
sg33
I600
sg34
F9400
sg35
I0
sg36
(dp1869
S'10'
p1870
(dp1871
g40
I50
sg41
S'1'
sg42
g79
sg43
g1870
sg44
F0
ssS'1'
(dp1872
g40
I100
sg41
S''
sg42
S'26'
p1873
sg43
S'1'
sg44
F0
ssS'3'
(dp1874
g40
I100
sg41
S''
sg42
S'8'
sg43
S'3'
sg44
F0
ssS'2'
(dp1875
g40
I100
sg41
S''
sg42
S'8'
sg43
S'2'
sg44
F0
ssS'5'
(dp1876
g40
I100
sg41
S''
sg42
g1873
sg43
S'5'
sg44
F0
ssS'4'
(dp1877
g40
I100
sg41
S''
sg42
S'8'
sg43
S'4'
sg44
F0
ssS'7'
(dp1878
g40
I50
sg41
S'1'
sg42
g79
sg43
S'7'
sg44
F0
ssS'6'
(dp1879
g40
I100
sg41
S''
sg42
g1873
sg43
S'6'
sg44
F0
ssS'9'
(dp1880
g40
I50
sg41
S'1'
sg42
g79
sg43
S'9'
sg44
F0
ssS'8'
(dp1881
g40
I50
sg41
S'1'
sg42
g79
sg43
S'8'
sg44
F0
sssg55
I0
sg56
F0
sg57
g105
sg19
F0
sg58
I0
sg59
I0
sg60
I300
sg61
I10
sssg1827
F27
sg1828
F0
sg1829
F2280
sg1830
F200
sg43
S'2'
sg1831
S'LFD-LPG0'
p1882
sg1833
S''
sg59
I0
sg1834
S''
sg1835
F0.66666666666666663
sg143
F5
sg1836
S'104'
p1883
sg56
F0
sg19
F60
sg153
S'LFD2-Neutral-LFD'
p1884
sg27
F0
sg34
F10400
sg55
I0
sssS'color1'
p1885
S'white'
p1886
sS'color2'
p1887
S'black'
p1888
sS'shipDesigns'
p1889
(dp1890
S'9'
(dp1891
g11
I0
sg1810
F438
sg1811
F828
sg1812
I0
sg18
I0
sg60
F400
sg1813
F100
sg22
(dp1892
g24
(dp1893
g11
I0
sg26
I0
sg27
I0
sg28
I0
sg29
S''
sg30
I0
sg31
(dp1894
sg18
I0
sg33
I0
sg34
F10000
sg35
I0
sg36
(dp1895
g168
(dp1896
g40
I50
sg41
S''
sg42
S'1'
sg43
g168
sg44
F0
ssS'1'
(dp1897
g40
I50
sg41
S''
sg42
S'7'
sg43
S'1'
sg44
F0
ssS'3'
(dp1898
g40
I50
sg41
S''
sg42
S'7'
sg43
S'3'
sg44
F0
ssS'2'
(dp1899
g40
I50
sg41
S''
sg42
S'7'
sg43
S'2'
sg44
F0
ssS'5'
(dp1900
g40
I50
sg41
S''
sg42
g74
sg43
S'5'
sg44
F0
ssS'4'
(dp1901
g40
I50
sg41
S''
sg42
S'4'
sg43
S'4'
sg44
F0
ssS'7'
(dp1902
g40
I50
sg41
S''
sg42
S'1'
sg43
S'7'
sg44
F0
ssS'6'
(dp1903
g40
I50
sg41
S''
sg42
S'1'
sg43
S'6'
sg44
F0
ssS'9'
(dp1904
g40
I50
sg41
S''
sg42
S'1'
sg43
S'9'
sg44
F0
ssS'8'
(dp1905
g40
I50
sg41
S''
sg42
S'1'
sg43
S'8'
sg44
F0
sssg55
I0
sg56
F50
sg57
g24
sg19
F24
sg58
I0
sg59
I0
sg60
I150
sg61
I10
ssg62
(dp1906
g11
I0
sg26
I0
sg27
I0
sg28
I0
sg29
S''
sg30
I0
sg31
(dp1907
S'1'
(dp1908
g66
S''
sg67
I0
sg68
F0
sg69
F90
sg70
F2.5
sg71
F0
sg72
I300
sg73
I1
sg42
g182
sg43
S'1'
sg40
I300
sssg18
I0
sg33
I0
sg34
F10000
sg35
I0
sg36
(dp1909
g184
(dp1910
g40
I50
sg41
S''
sg42
g74
sg43
g184
sg44
F0
ssS'1'
(dp1911
g40
I50
sg41
S'1'
sg42
g79
sg43
S'1'
sg44
F0
ssS'3'
(dp1912
g40
I50
sg41
S'1'
sg42
g79
sg43
S'3'
sg44
F0
ssS'2'
(dp1913
g40
I50
sg41
S'1'
sg42
g79
sg43
S'2'
sg44
F0
ssS'5'
(dp1914
g40
I50
sg41
S'1'
sg42
g79
sg43
S'5'
sg44
F0
ssS'4'
(dp1915
g40
I50
sg41
S'1'
sg42
g79
sg43
S'4'
sg44
F0
ssS'7'
(dp1916
g40
I50
sg41
S''
sg42
S'7'
sg43
S'7'
sg44
F0
ssS'6'
(dp1917
g40
I50
sg41
S'1'
sg42
g79
sg43
S'6'
sg44
F0
ssS'9'
(dp1918
g40
I50
sg41
S''
sg42
g74
sg43
S'9'
sg44
F0
ssS'8'
(dp1919
g40
I50
sg41
S''
sg42
S'4'
sg43
S'8'
sg44
F0
sssg55
I0
sg56
F0
sg57
g62
sg19
F24
sg58
I0
sg59
I0
sg60
I50
sg61
I10
ssg88
(dp1920
g11
I0
sg26
I0
sg27
I0
sg28
I0
sg29
S''
sg30
I0
sg31
(dp1921
S'1'
(dp1922
g66
S''
sg67
I0
sg68
F0
sg69
F90
sg70
F2.5
sg71
F0
sg72
I300
sg73
I1
sg42
g182
sg43
S'1'
sg40
I300
ssS'2'
(dp1923
g66
S''
sg67
I0
sg68
F0
sg69
F0
sg70
F0.29999999999999999
sg71
F0
sg72
I200
sg73
I1
sg42
S'4'
sg43
S'2'
sg40
I200
sssg18
I0
sg33
I0
sg34
F10000
sg35
I0
sg36
(dp1924
g200
(dp1925
g40
I50
sg41
S'2'
sg42
g79
sg43
g200
sg44
F0
ssS'1'
(dp1926
g40
I50
sg41
S'1'
sg42
g79
sg43
S'1'
sg44
F0
ssS'3'
(dp1927
g40
I50
sg41
S'1'
sg42
g79
sg43
S'3'
sg44
F0
ssS'2'
(dp1928
g40
I50
sg41
S'1'
sg42
g79
sg43
S'2'
sg44
F0
ssS'5'
(dp1929
g40
I50
sg41
S'1'
sg42
g79
sg43
S'5'
sg44
F0
ssS'4'
(dp1930
g40
I50
sg41
S'1'
sg42
g79
sg43
S'4'
sg44
F0
ssS'7'
(dp1931
g40
I50
sg41
S'2'
sg42
g79
sg43
S'7'
sg44
F0
ssS'6'
(dp1932
g40
I50
sg41
S'1'
sg42
g79
sg43
S'6'
sg44
F0
ssS'9'
(dp1933
g40
I50
sg41
S'2'
sg42
g79
sg43
S'9'
sg44
F0
ssS'8'
(dp1934
g40
I50
sg41
S'2'
sg42
g79
sg43
S'8'
sg44
F0
sssg55
I0
sg56
I0
sg57
g88
sg19
I0
sg58
I0
sg59
I0
sg60
I0
sg61
I10
ssg105
(dp1935
g11
I0
sg26
I0
sg27
I0
sg28
I0
sg29
S''
sg30
I0
sg31
(dp1936
sg18
I0
sg33
I0
sg34
F10000
sg35
I0
sg36
(dp1937
g214
(dp1938
g40
I50
sg41
S''
sg42
S'1'
sg43
g214
sg44
F0
ssS'1'
(dp1939
g40
I50
sg41
S''
sg42
S'7'
sg43
S'1'
sg44
F0
ssS'3'
(dp1940
g40
I50
sg41
S''
sg42
S'7'
sg43
S'3'
sg44
F0
ssS'2'
(dp1941
g40
I50
sg41
S''
sg42
S'7'
sg43
S'2'
sg44
F0
ssS'5'
(dp1942
g40
I50
sg41
S''
sg42
S'4'
sg43
S'5'
sg44
F0
ssS'4'
(dp1943
g40
I50
sg41
S''
sg42
S'7'
sg43
S'4'
sg44
F0
ssS'7'
(dp1944
g40
I50
sg41
S''
sg42
S'1'
sg43
S'7'
sg44
F0
ssS'6'
(dp1945
g40
I50
sg41
S''
sg42
S'1'
sg43
S'6'
sg44
F0
ssS'9'
(dp1946
g40
I50
sg41
S''
sg42
S'1'
sg43
S'9'
sg44
F0
ssS'8'
(dp1947
g40
I50
sg41
S''
sg42
S'1'
sg43
S'8'
sg44
F0
sssg55
I0
sg56
F50
sg57
g105
sg19
F24
sg58
I0
sg59
I0
sg60
I200
sg61
I10
sssg1827
F162
sg1828
F0.25
sg1829
F8580
sg1830
F350
sg43
S'9'
sg1831
S'HCO--MNT90-MNT90APG0-'
p1948
sg1833
S''
sg59
I0
sg1834
S''
sg1835
F0.875
sg143
F2
sg1836
S'4'
sg56
F100
sg19
F46.079999999999998
sg153
S'HCO9-Neutral-HCO'
p1949
sg27
F0
sg34
F50000
sg55
I0
ssg156
(dp1950
g11
I0
sg1810
F438
sg1811
F828
sg1812
I0
sg18
I0
sg60
F400
sg1813
F100
sg22
(dp1951
g24
(dp1952
g11
I0
sg26
I0
sg27
I0
sg28
I0
sg29
S''
sg30
I0
sg31
(dp1953
sg18
I0
sg33
I0
sg34
F10000
sg35
I0
sg36
(dp1954
g38
(dp1955
g40
I50
sg41
S''
sg42
S'1'
sg43
g38
sg44
F0
ssS'1'
(dp1956
g40
I50
sg41
S''
sg42
S'7'
sg43
S'1'
sg44
F0
ssS'3'
(dp1957
g40
I50
sg41
S''
sg42
S'7'
sg43
S'3'
sg44
F0
ssS'2'
(dp1958
g40
I50
sg41
S''
sg42
S'7'
sg43
S'2'
sg44
F0
ssS'5'
(dp1959
g40
I50
sg41
S''
sg42
g49
sg43
S'5'
sg44
F0
ssS'4'
(dp1960
g40
I50
sg41
S''
sg42
S'4'
sg43
S'4'
sg44
F0
ssS'7'
(dp1961
g40
I50
sg41
S''
sg42
S'1'
sg43
S'7'
sg44
F0
ssS'6'
(dp1962
g40
I50
sg41
S''
sg42
S'1'
sg43
S'6'
sg44
F0
ssS'9'
(dp1963
g40
I50
sg41
S''
sg42
S'1'
sg43
S'9'
sg44
F0
ssS'8'
(dp1964
g40
I50
sg41
S''
sg42
S'1'
sg43
S'8'
sg44
F0
sssg55
I0
sg56
F50
sg57
g24
sg19
F24
sg58
I0
sg59
I0
sg60
I150
sg61
I10
ssg62
(dp1965
g11
I0
sg26
I0
sg27
I0
sg28
I0
sg29
S''
sg30
I0
sg31
(dp1966
S'1'
(dp1967
g66
S''
sg67
I0
sg68
F0
sg69
F270
sg70
F2.5
sg71
F0
sg72
I300
sg73
I1
sg42
g74
sg43
S'1'
sg40
I300
sssg18
I0
sg33
I0
sg34
F10000
sg35
I0
sg36
(dp1968
g76
(dp1969
g40
I50
sg41
S''
sg42
g49
sg43
g76
sg44
F0
ssS'1'
(dp1970
g40
I50
sg41
S'1'
sg42
g79
sg43
S'1'
sg44
F0
ssS'3'
(dp1971
g40
I50
sg41
S'1'
sg42
g79
sg43
S'3'
sg44
F0
ssS'2'
(dp1972
g40
I50
sg41
S'1'
sg42
g79
sg43
S'2'
sg44
F0
ssS'5'
(dp1973
g40
I50
sg41
S'1'
sg42
g79
sg43
S'5'
sg44
F0
ssS'4'
(dp1974
g40
I50
sg41
S'1'
sg42
g79
sg43
S'4'
sg44
F0
ssS'7'
(dp1975
g40
I50
sg41
S''
sg42
S'7'
sg43
S'7'
sg44
F0
ssS'6'
(dp1976
g40
I50
sg41
S'1'
sg42
g79
sg43
S'6'
sg44
F0
ssS'9'
(dp1977
g40
I50
sg41
S''
sg42
g49
sg43
S'9'
sg44
F0
ssS'8'
(dp1978
g40
I50
sg41
S''
sg42
S'4'
sg43
S'8'
sg44
F0
sssg55
I0
sg56
F0
sg57
g62
sg19
F24
sg58
I0
sg59
I0
sg60
I50
sg61
I10
ssg88
(dp1979
g11
I0
sg26
I0
sg27
I0
sg28
I0
sg29
S''
sg30
I0
sg31
(dp1980
S'1'
(dp1981
g66
S''
sg67
I0
sg68
F0
sg69
F270
sg70
F2.5
sg71
F0
sg72
I300
sg73
I1
sg42
g74
sg43
S'1'
sg40
I300
ssS'2'
(dp1982
g66
S''
sg67
I0
sg68
F0
sg69
F0
sg70
F0.29999999999999999
sg71
F0
sg72
I200
sg73
I1
sg42
S'4'
sg43
S'2'
sg40
I200
sssg18
I0
sg33
I0
sg34
F10000
sg35
I0
sg36
(dp1983
g94
(dp1984
g40
I50
sg41
S'2'
sg42
g79
sg43
g94
sg44
F0
ssS'1'
(dp1985
g40
I50
sg41
S'1'
sg42
g79
sg43
S'1'
sg44
F0
ssS'3'
(dp1986
g40
I50
sg41
S'1'
sg42
g79
sg43
S'3'
sg44
F0
ssS'2'
(dp1987
g40
I50
sg41
S'1'
sg42
g79
sg43
S'2'
sg44
F0
ssS'5'
(dp1988
g40
I50
sg41
S'1'
sg42
g79
sg43
S'5'
sg44
F0
ssS'4'
(dp1989
g40
I50
sg41
S'1'
sg42
g79
sg43
S'4'
sg44
F0
ssS'7'
(dp1990
g40
I50
sg41
S'2'
sg42
g79
sg43
S'7'
sg44
F0
ssS'6'
(dp1991
g40
I50
sg41
S'1'
sg42
g79
sg43
S'6'
sg44
F0
ssS'9'
(dp1992
g40
I50
sg41
S'2'
sg42
g79
sg43
S'9'
sg44
F0
ssS'8'
(dp1993
g40
I50
sg41
S'2'
sg42
g79
sg43
S'8'
sg44
F0
sssg55
I0
sg56
I0
sg57
g88
sg19
I0
sg58
I0
sg59
I0
sg60
I0
sg61
I10
ssg105
(dp1994
g11
I0
sg26
I0
sg27
I0
sg28
I0
sg29
S''
sg30
I0
sg31
(dp1995
sg18
I0
sg33
I0
sg34
F10000
sg35
I0
sg36
(dp1996
g109
(dp1997
g40
I50
sg41
S''
sg42
S'1'
sg43
g109
sg44
F0
ssS'1'
(dp1998
g40
I50
sg41
S''
sg42
S'7'
sg43
S'1'
sg44
F0
ssS'3'
(dp1999
g40
I50
sg41
S''
sg42
S'7'
sg43
S'3'
sg44
F0
ssS'2'
(dp2000
g40
I50
sg41
S''
sg42
S'7'
sg43
S'2'
sg44
F0
ssS'5'
(dp2001
g40
I50
sg41
S''
sg42
S'4'
sg43
S'5'
sg44
F0
ssS'4'
(dp2002
g40
I50
sg41
S''
sg42
S'7'
sg43
S'4'
sg44
F0
ssS'7'
(dp2003
g40
I50
sg41
S''
sg42
S'1'
sg43
S'7'
sg44
F0
ssS'6'
(dp2004
g40
I50
sg41
S''
sg42
S'1'
sg43
S'6'
sg44
F0
ssS'9'
(dp2005
g40
I50
sg41
S''
sg42
S'1'
sg43
S'9'
sg44
F0
ssS'8'
(dp2006
g40
I50
sg41
S''
sg42
S'1'
sg43
S'8'
sg44
F0
sssg55
I0
sg56
F50
sg57
g105
sg19
F24
sg58
I0
sg59
I0
sg60
I200
sg61
I10
sssg1827
F162
sg1828
F0.25
sg1829
F8580
sg1830
F700
sg43
g156
sg1831
S'HCO--MNM270-MNM270APG0-'
p2007
sg1833
S''
sg59
I0
sg1834
S''
sg1835
F1.75
sg143
F2
sg1836
S'4'
sg56
F100
sg19
F46.079999999999998
sg153
S'HCO10-Neutral-HCO'
p2008
sg27
F0
sg34
F50000
sg55
I0
ssg492
(dp2009
g11
I0
sg1810
F426
sg1811
F792
sg1812
I0
sg18
I0
sg60
F350
sg1813
F100
sg22
(dp2010
g24
(dp2011
g11
I0
sg26
I0
sg27
I0
sg28
I0
sg29
S''
sg30
I0
sg31
(dp2012
S'1'
(dp2013
g66
S''
sg67
I0
sg68
F0
sg69
F0
sg70
F0.29999999999999999
sg71
F0
sg72
I200
sg73
I1
sg42
S'4'
sg43
S'1'
sg40
I200
sssg18
I0
sg33
I0
sg34
F10000
sg35
I0
sg36
(dp2014
g430
(dp2015
g40
I50
sg41
S''
sg42
S'1'
sg43
g430
sg44
F0
ssS'1'
(dp2016
g40
I50
sg41
S'1'
sg42
g79
sg43
S'1'
sg44
F0
ssS'3'
(dp2017
g40
I50
sg41
S'1'
sg42
g79
sg43
S'3'
sg44
F0
ssS'2'
(dp2018
g40
I50
sg41
S'1'
sg42
g79
sg43
S'2'
sg44
F0
ssS'5'
(dp2019
g40
I50
sg41
S''
sg42
S'7'
sg43
S'5'
sg44
F0
ssS'4'
(dp2020
g40
I50
sg41
S'1'
sg42
g79
sg43
S'4'
sg44
F0
ssS'7'
(dp2021
g40
I50
sg41
S''
sg42
S'7'
sg43
S'7'
sg44
F0
ssS'6'
(dp2022
g40
I50
sg41
S''
sg42
S'7'
sg43
S'6'
sg44
F0
ssS'9'
(dp2023
g40
I50
sg41
S''
sg42
S'1'
sg43
S'9'
sg44
F0
ssS'8'
(dp2024
g40
I50
sg41
S''
sg42
S'4'
sg43
S'8'
sg44
F0
sssg55
I0
sg56
F20
sg57
g24
sg19
F24
sg58
I0
sg59
I0
sg60
I150
sg61
I10
ssg62
(dp2025
g11
I0
sg26
I0
sg27
I0
sg28
I0
sg29
S''
sg30
I0
sg31
(dp2026
S'1'
(dp2027
g66
S''
sg67
I0
sg68
F0
sg69
F270
sg70
F3
sg71
F0
sg72
I400
sg73
I1
sg42
g444
sg43
S'1'
sg40
I400
sssg18
I0
sg33
I0
sg34
F10000
sg35
I0
sg36
(dp2028
g446
(dp2029
g40
I50
sg41
S''
sg42
g448
sg43
g446
sg44
F0
ssS'1'
(dp2030
g40
I50
sg41
S'1'
sg42
g79
sg43
S'1'
sg44
F0
ssS'3'
(dp2031
g40
I50
sg41
S'1'
sg42
g79
sg43
S'3'
sg44
F0
ssS'2'
(dp2032
g40
I50
sg41
S'1'
sg42
g79
sg43
S'2'
sg44
F0
ssS'5'
(dp2033
g40
I50
sg41
S'1'
sg42
g79
sg43
S'5'
sg44
F0
ssS'4'
(dp2034
g40
I50
sg41
S'1'
sg42
g79
sg43
S'4'
sg44
F0
ssS'7'
(dp2035
g40
I50
sg41
S'1'
sg42
g79
sg43
S'7'
sg44
F0
ssS'6'
(dp2036
g40
I50
sg41
S'1'
sg42
g79
sg43
S'6'
sg44
F0
ssS'9'
(dp2037
g40
I50
sg41
S''
sg42
g448
sg43
S'9'
sg44
F0
ssS'8'
(dp2038
g40
I50
sg41
S'1'
sg42
g79
sg43
S'8'
sg44
F0
sssg55
I0
sg56
F0
sg57
g62
sg19
F0
sg58
I0
sg59
I0
sg60
I0
sg61
I10
ssg88
(dp2039
g11
I0
sg26
I0
sg27
I0
sg28
I0
sg29
S''
sg30
I0
sg31
(dp2040
S'1'
(dp2041
g66
S''
sg67
I0
sg68
F0
sg69
F270
sg70
F3
sg71
F0
sg72
I400
sg73
I1
sg42
g444
sg43
S'1'
sg40
I400
sssg18
I0
sg33
I0
sg34
F10000
sg35
I0
sg36
(dp2042
g462
(dp2043
g40
I50
sg41
S''
sg42
g448
sg43
g462
sg44
F0
ssS'1'
(dp2044
g40
I50
sg41
S'1'
sg42
g79
sg43
S'1'
sg44
F0
ssS'3'
(dp2045
g40
I50
sg41
S'1'
sg42
g79
sg43
S'3'
sg44
F0
ssS'2'
(dp2046
g40
I50
sg41
S'1'
sg42
g79
sg43
S'2'
sg44
F0
ssS'5'
(dp2047
g40
I50
sg41
S'1'
sg42
g79
sg43
S'5'
sg44
F0
ssS'4'
(dp2048
g40
I50
sg41
S'1'
sg42
g79
sg43
S'4'
sg44
F0
ssS'7'
(dp2049
g40
I50
sg41
S'1'
sg42
g79
sg43
S'7'
sg44
F0
ssS'6'
(dp2050
g40
I50
sg41
S'1'
sg42
g79
sg43
S'6'
sg44
F0
ssS'9'
(dp2051
g40
I50
sg41
S''
sg42
g448
sg43
S'9'
sg44
F0
ssS'8'
(dp2052
g40
I50
sg41
S'1'
sg42
g79
sg43
S'8'
sg44
F0
sssg55
I0
sg56
F0
sg57
g88
sg19
F0
sg58
I0
sg59
I0
sg60
I0
sg61
I10
ssg105
(dp2053
g11
I0
sg26
I0
sg27
I0
sg28
I0
sg29
S''
sg30
I0
sg31
(dp2054
sg18
I0
sg33
I0
sg34
F10000
sg35
I0
sg36
(dp2055
g476
(dp2056
g40
I50
sg41
S''
sg42
S'1'
sg43
g476
sg44
F0
ssS'1'
(dp2057
g40
I50
sg41
S''
sg42
S'7'
sg43
S'1'
sg44
F0
ssS'3'
(dp2058
g40
I50
sg41
S''
sg42
S'7'
sg43
S'3'
sg44
F0
ssS'2'
(dp2059
g40
I50
sg41
S''
sg42
S'7'
sg43
S'2'
sg44
F0
ssS'5'
(dp2060
g40
I50
sg41
S''
sg42
S'4'
sg43
S'5'
sg44
F0
ssS'4'
(dp2061
g40
I50
sg41
S''
sg42
S'7'
sg43
S'4'
sg44
F0
ssS'7'
(dp2062
g40
I50
sg41
S''
sg42
S'1'
sg43
S'7'
sg44
F0
ssS'6'
(dp2063
g40
I50
sg41
S''
sg42
S'1'
sg43
S'6'
sg44
F0
ssS'9'
(dp2064
g40
I50
sg41
S''
sg42
S'1'
sg43
S'9'
sg44
F0
ssS'8'
(dp2065
g40
I50
sg41
S''
sg42
S'1'
sg43
S'8'
sg44
F0
sssg55
I0
sg56
F50
sg57
g105
sg19
F24
sg58
I0
sg59
I0
sg60
I200
sg61
I10
sssg1827
F168
sg1828
F0.2857142857142857
sg1829
F8300
sg1830
F950
sg43
g492
sg1831
S'HCO-APG0-HNM270-HNM270-'
p2066
sg1833
S''
sg59
I0
sg1834
S''
sg1835
F2.7142857142857144
sg143
F1.3999999999999999
sg1836
S'4'
sg56
F70
sg19
F30.719999999999999
sg153
S'HCO11-Neutral-HCO'
p2067
sg27
F0
sg34
F50000
sg55
I0
sssg518
S'0'
ssS'2'
(dp2068
g1805
S''
sg585
S'Brown Empire'
p2069
sg1807
(dp2070
S'1'
(dp2071
g11
I0
sg1810
F52
sg1811
F68
sg1812
I0
sg18
I0
sg60
F100
sg1813
F0
sg22
(dp2072
g105
(dp2073
g11
I0
sg26
I0
sg27
I0
sg28
I0
sg29
S''
sg30
I2
sg31
(dp2074
S'1'
(dp2075
g66
S''
sg67
I0
sg68
F0
sg69
F0
sg70
F2
sg71
F0
sg72
I200
sg73
I1
sg42
S'1'
sg43
S'1'
sg40
I200
sssg18
I0
sg33
I200
sg34
F8000
sg35
I0
sg36
(dp2076
S'1'
(dp2077
g40
I50
sg41
S''
sg42
S'7'
sg43
S'1'
sg44
F0
ssS'3'
(dp2078
g40
I50
sg41
S''
sg42
g523
sg43
S'3'
sg44
F0
ssS'2'
(dp2079
g40
I50
sg41
S''
sg42
S'7'
sg43
S'2'
sg44
F0
ssS'5'
(dp2080
g40
I50
sg41
S'1'
sg42
g79
sg43
S'5'
sg44
F0
ssS'4'
(dp2081
g40
I50
sg41
S''
sg42
g523
sg43
S'4'
sg44
F0
ssS'7'
(dp2082
g40
I50
sg41
S'1'
sg42
g79
sg43
S'7'
sg44
F0
ssS'6'
(dp2083
g40
I50
sg41
S'1'
sg42
g79
sg43
S'6'
sg44
F0
ssS'8'
(dp2084
g40
I50
sg41
S'1'
sg42
g79
sg43
S'8'
sg44
F0
sssg55
I0
sg56
F0
sg57
g105
sg19
F0
sg58
I0
sg59
I0
sg60
I100
sg61
I8
sssg1827
F22
sg1828
F0
sg1829
F1280
sg1830
F200
sg43
S'1'
sg1831
S'LND-LPG0'
p2085
sg1833
S''
sg59
I0
sg1834
S''
sg1835
F2
sg143
F5
sg1836
g1837
sg56
F0
sg19
F60
sg153
S'LND1-Neutral-LND'
p2086
sg27
F0
sg34
F9000
sg55
I0
ssS'3'
(dp2087
g11
I0
sg1810
F198
sg1811
F228
sg1812
I0
sg18
I0
sg60
F800
sg1813
F0
sg22
(dp2088
g105
(dp2089
g11
I0
sg26
I0
sg27
I0
sg28
I0
sg29
S''
sg30
I12
sg31
(dp2090
S'1'
(dp2091
g66
S''
sg67
I0
sg68
F0
sg69
F0
sg70
F2
sg71
F0
sg72
I200
sg73
I1
sg42
S'1'
sg43
S'1'
sg40
I200
sssg18
I0
sg33
I1200
sg34
F10400
sg35
I0
sg36
(dp2092
S'11'
p2093
(dp2094
g40
I50
sg41
S'1'
sg42
g79
sg43
g2093
sg44
F0
ssS'10'
p2095
(dp2096
g40
I50
sg41
S'1'
sg42
g79
sg43
g2095
sg44
F0
ssS'12'
p2097
(dp2098
g40
I50
sg41
S'1'
sg42
g79
sg43
g2097
sg44
F0
ssS'1'
(dp2099
g40
I200
sg41
S''
sg42
S'9'
sg43
S'1'
sg44
F0
ssS'3'
(dp2100
g40
I200
sg41
S''
sg42
S'9'
sg43
S'3'
sg44
F0
ssS'2'
(dp2101
g40
I200
sg41
S''
sg42
S'9'
sg43
S'2'
sg44
F0
ssS'5'
(dp2102
g40
I200
sg41
S''
sg42
g1855
sg43
S'5'
sg44
F0
ssS'4'
(dp2103
g40
I200
sg41
S''
sg42
S'9'
sg43
S'4'
sg44
F0
ssS'7'
(dp2104
g40
I200
sg41
S''
sg42
g1855
sg43
S'7'
sg44
F0
ssS'6'
(dp2105
g40
I200
sg41
S''
sg42
g1855
sg43
S'6'
sg44
F0
ssS'9'
(dp2106
g40
I50
sg41
S'1'
sg42
g79
sg43
S'9'
sg44
F0
ssS'8'
(dp2107
g40
I200
sg41
S''
sg42
g1855
sg43
S'8'
sg44
F0
sssg55
I0
sg56
F0
sg57
g105
sg19
F0
sg58
I0
sg59
I0
sg60
I800
sg61
I12
sssg1827
F32
sg1828
F0
sg1829
F3680
sg1830
F200
sg43
S'3'
sg1831
S'LPD-LPG0'
p2108
sg1833
S''
sg59
I0
sg1834
S''
sg1835
F0.25
sg143
F5
sg1836
g1862
sg56
F0
sg19
F60
sg153
S'LPD3-Neutral-LPD'
p2109
sg27
F0
sg34
F11400
sg55
I0
ssS'2'
(dp2110
g11
I0
sg1810
F93
sg1811
F134
sg1812
I0
sg18
I0
sg60
F300
sg1813
F0
sg22
(dp2111
g105
(dp2112
g11
I0
sg26
I0
sg27
I0
sg28
I0
sg29
S''
sg30
I6
sg31
(dp2113
S'1'
(dp2114
g66
S''
sg67
I0
sg68
F0
sg69
F0
sg70
F2
sg71
F0
sg72
I200
sg73
I1
sg42
S'1'
sg43
S'1'
sg40
I200
sssg18
I0
sg33
I600
sg34
F9400
sg35
I0
sg36
(dp2115
S'10'
p2116
(dp2117
g40
I50
sg41
S'1'
sg42
g79
sg43
g2116
sg44
F0
ssS'1'
(dp2118
g40
I100
sg41
S''
sg42
g1873
sg43
S'1'
sg44
F0
ssS'3'
(dp2119
g40
I100
sg41
S''
sg42
S'8'
sg43
S'3'
sg44
F0
ssS'2'
(dp2120
g40
I100
sg41
S''
sg42
S'8'
sg43
S'2'
sg44
F0
ssS'5'
(dp2121
g40
I100
sg41
S''
sg42
g1873
sg43
S'5'
sg44
F0
ssS'4'
(dp2122
g40
I100
sg41
S''
sg42
S'8'
sg43
S'4'
sg44
F0
ssS'7'
(dp2123
g40
I50
sg41
S'1'
sg42
g79
sg43
S'7'
sg44
F0
ssS'6'
(dp2124
g40
I100
sg41
S''
sg42
g1873
sg43
S'6'
sg44
F0
ssS'9'
(dp2125
g40
I50
sg41
S'1'
sg42
g79
sg43
S'9'
sg44
F0
ssS'8'
(dp2126
g40
I50
sg41
S'1'
sg42
g79
sg43
S'8'
sg44
F0
sssg55
I0
sg56
F0
sg57
g105
sg19
F0
sg58
I0
sg59
I0
sg60
I300
sg61
I10
sssg1827
F27
sg1828
F0
sg1829
F2280
sg1830
F200
sg43
S'2'
sg1831
S'LFD-LPG0'
p2127
sg1833
S''
sg59
I0
sg1834
S''
sg1835
F0.66666666666666663
sg143
F5
sg1836
g1883
sg56
F0
sg19
F60
sg153
S'LFD2-Neutral-LFD'
p2128
sg27
F0
sg34
F10400
sg55
I0
sssg1885
S'brown'
p2129
sg1887
g1888
sg1889
(dp2130
g958
(dp2131
g494
I0
sS'costEC'
p2132
F544
sS'costAL'
p2133
F952
sS'obsolete'
p2134
I0
sg497
I0
sg529
F700
sS'totalAMSPower'
p2135
F150
sg22
(dp2136
g884
(dp2137
g494
I0
sg503
I0
sg504
I0
sg505
I0
sg506
S''
sg508
I0
sg31
(dp2138
S'1'
(dp2139
g548
S''
sg549
I0
sg550
F0
sg551
F0
sg552
F0.29999999999999999
sg553
F0
sg554
I400
sg555
I1
sg517
S'8'
sg518
S'1'
sg515
I400
sssg497
I0
sg510
I0
sg511
F9400
sg512
I0
sg36
(dp2140
g889
(dp2141
g515
I100
sg516
S'1'
sg517
g689
sg518
g889
sg519
F0
ssS'1'
(dp2142
g515
I100
sg516
S''
sg517
S'2'
sg518
S'1'
sg519
F0
ssS'3'
(dp2143
g515
I100
sg516
S''
sg517
S'5'
sg518
S'3'
sg519
F0
ssS'2'
(dp2144
g515
I100
sg516
S''
sg517
S'2'
sg518
S'2'
sg519
F0
ssS'5'
(dp2145
g515
I100
sg516
S''
sg517
S'8'
sg518
S'5'
sg519
F0
ssS'4'
(dp2146
g515
I100
sg516
S''
sg517
S'8'
sg518
S'4'
sg519
F0
ssS'7'
(dp2147
g515
I100
sg516
S'1'
sg517
g689
sg518
S'7'
sg519
F0
ssS'6'
(dp2148
g515
I100
sg516
S''
sg517
S'8'
sg518
S'6'
sg519
F0
ssS'9'
(dp2149
g515
I100
sg516
S'1'
sg517
g689
sg518
S'9'
sg519
F0
ssS'8'
(dp2150
g515
I100
sg516
S'1'
sg517
g689
sg518
S'8'
sg519
F0
sssg524
I0
sg525
F32
sg526
g884
sg498
F45
sg527
I0
sg528
I0
sg529
I300
sg530
I10
ssg900
(dp2151
g494
I0
sg503
I0
sg504
I0
sg505
I0
sg506
S''
sg508
I0
sg31
(dp2152
S'1'
(dp2153
g548
S''
sg549
I0
sg550
F0
sg551
F90
sg552
F3
sg553
F0
sg554
I800
sg555
I1
sg517
g904
sg518
S'1'
sg515
I800
sssg497
I0
sg510
I0
sg511
F9800
sg512
I0
sg36
(dp2154
g906
(dp2155
g515
I100
sg516
S'1'
sg517
g689
sg518
g906
sg519
F0
ssS'1'
(dp2156
g515
I100
sg516
S''
sg517
g909
sg518
S'1'
sg519
F0
ssS'3'
(dp2157
g515
I100
sg516
S'1'
sg517
g689
sg518
S'3'
sg519
F0
ssS'2'
(dp2158
g515
I100
sg516
S''
sg517
g912
sg518
S'2'
sg519
F0
ssS'5'
(dp2159
g515
I100
sg516
S'1'
sg517
g689
sg518
S'5'
sg519
F0
ssS'4'
(dp2160
g515
I100
sg516
S'1'
sg517
g689
sg518
S'4'
sg519
F0
ssS'7'
(dp2161
g515
I100
sg516
S'1'
sg517
g689
sg518
S'7'
sg519
F0
ssS'6'
(dp2162
g515
I100
sg516
S'1'
sg517
g689
sg518
S'6'
sg519
F0
ssS'9'
(dp2163
g515
I100
sg516
S'1'
sg517
g689
sg518
S'9'
sg519
F0
ssS'8'
(dp2164
g515
I100
sg516
S'1'
sg517
g689
sg518
S'8'
sg519
F0
sssg524
I0
sg525
F0
sg526
g900
sg498
F0
sg527
I0
sg528
I0
sg529
I0
sg530
I10
ssg919
(dp2165
g494
I0
sg503
I0
sg504
I0
sg505
I0
sg506
S''
sg508
I0
sg31
(dp2166
S'1'
(dp2167
g548
S''
sg549
I0
sg550
F0
sg551
F270
sg552
F3
sg553
F0
sg554
I800
sg555
I1
sg517
g923
sg518
S'1'
sg515
I800
sssg497
I0
sg510
I0
sg511
F9800
sg512
I0
sg36
(dp2168
g925
(dp2169
g515
I100
sg516
S'1'
sg517
g689
sg518
g925
sg519
F0
ssS'1'
(dp2170
g515
I100
sg516
S''
sg517
g928
sg518
S'1'
sg519
F0
ssS'3'
(dp2171
g515
I100
sg516
S'1'
sg517
g689
sg518
S'3'
sg519
F0
ssS'2'
(dp2172
g515
I100
sg516
S''
sg517
g931
sg518
S'2'
sg519
F0
ssS'5'
(dp2173
g515
I100
sg516
S'1'
sg517
g689
sg518
S'5'
sg519
F0
ssS'4'
(dp2174
g515
I100
sg516
S'1'
sg517
g689
sg518
S'4'
sg519
F0
ssS'7'
(dp2175
g515
I100
sg516
S'1'
sg517
g689
sg518
S'7'
sg519
F0
ssS'6'
(dp2176
g515
I100
sg516
S'1'
sg517
g689
sg518
S'6'
sg519
F0
ssS'9'
(dp2177
g515
I100
sg516
S'1'
sg517
g689
sg518
S'9'
sg519
F0
ssS'8'
(dp2178
g515
I100
sg516
S'1'
sg517
g689
sg518
S'8'
sg519
F0
sssg524
I0
sg525
F0
sg526
g919
sg498
F0
sg527
I0
sg528
I0
sg529
I0
sg530
I10
ssg938
(dp2179
g494
I0
sg503
I0
sg504
I0
sg505
I0
sg506
S''
sg508
I0
sg31
(dp2180
sg497
I0
sg510
I0
sg511
F9000
sg512
I0
sg36
(dp2181
g942
(dp2182
g515
I100
sg516
S''
sg517
S'8'
sg518
g942
sg519
F0
ssS'1'
(dp2183
g515
I100
sg516
S''
sg517
S'2'
sg518
S'1'
sg519
F0
ssS'3'
(dp2184
g515
I100
sg516
S''
sg517
S'2'
sg518
S'3'
sg519
F0
ssS'2'
(dp2185
g515
I100
sg516
S''
sg517
S'2'
sg518
S'2'
sg519
F0
ssS'5'
(dp2186
g515
I100
sg516
S''
sg517
S'2'
sg518
S'5'
sg519
F0
ssS'4'
(dp2187
g515
I100
sg516
S''
sg517
S'2'
sg518
S'4'
sg519
F0
ssS'7'
(dp2188
g515
I100
sg516
S''
sg517
S'8'
sg518
S'7'
sg519
F0
ssS'6'
(dp2189
g515
I100
sg516
S''
sg517
S'5'
sg518
S'6'
sg519
F0
ssS'9'
(dp2190
g515
I100
sg516
S''
sg517
S'8'
sg518
S'9'
sg519
F0
ssS'8'
(dp2191
g515
I100
sg516
S''
sg517
S'8'
sg518
S'8'
sg519
F0
sssg524
I0
sg525
F80
sg526
g938
sg498
F45
sg527
I0
sg528
I0
sg529
I400
sg530
I10
sssS'costIA'
p2192
F178
sS'amsFireRate'
p2193
F0.21428571428571427
sS'costCR'
p2194
F10280
sS'totalWeapPower'
p2195
F1200
sg518
g958
sS'abr'
p2196
S'HCO-AFC0-HAC90-HAC270-'
p2197
sS'techReq'
p2198
S''
sg528
I0
sS'description'
p2199
S''
sS'weapFireRate'
p2200
F1.7142857142857142
sg575
F2.3300000000000001
sS'shipHullID'
p2201
S'4'
sg525
F112
sg498
F60
sg585
S'HCO18-SCOTTY'
p2202
sg504
F0
sg511
F48000
sg524
I0
ssg588
(dp2203
g11
I0
sg1810
F440
sg1811
F876
sg1812
I1
sg18
I0
sg60
F200
sg1813
F100
sg22
(dp2204
g24
(dp2205
g11
I0
sg26
I0
sg27
I0
sg28
I300
sg29
g507
sg30
I1
sg31
(dp2206
sg18
I0
sg33
I100
sg34
F3000
sg35
I0
sg36
(dp2207
S'1'
(dp2208
g40
I50
sg41
S''
sg42
S'1'
sg43
S'1'
sg44
F0
ssS'3'
(dp2209
g40
I50
sg41
S''
sg42
g521
sg43
S'3'
sg44
F0
ssS'2'
(dp2210
g40
I50
sg41
S''
sg42
g523
sg43
S'2'
sg44
F0
sssg55
I0
sg56
F10
sg57
g24
sg19
F0
sg58
I0
sg59
I0
sg60
I0
sg61
I3
ssg62
(dp2211
g11
I0
sg26
I0
sg27
I0
sg28
I300
sg29
g507
sg30
I1
sg31
(dp2212
sg18
I0
sg33
I100
sg34
F4000
sg35
I0
sg36
(dp2213
S'1'
(dp2214
g40
I50
sg41
S''
sg42
S'1'
sg43
S'1'
sg44
F0
ssS'3'
(dp2215
g40
I50
sg41
S''
sg42
g521
sg43
S'3'
sg44
F0
ssS'2'
(dp2216
g40
I50
sg41
S''
sg42
g523
sg43
S'2'
sg44
F0
ssS'4'
(dp2217
g40
I50
sg41
S''
sg42
S'4'
sg43
S'4'
sg44
F0
sssg55
I0
sg56
F10
sg57
g62
sg19
F24
sg58
I0
sg59
I0
sg60
I0
sg61
I4
ssg88
(dp2218
g11
I0
sg26
I0
sg27
I0
sg28
I300
sg29
g507
sg30
I1
sg31
(dp2219
sg18
I0
sg33
I100
sg34
F4000
sg35
I0
sg36
(dp2220
S'1'
(dp2221
g40
I50
sg41
S''
sg42
S'1'
sg43
S'1'
sg44
F0
ssS'3'
(dp2222
g40
I50
sg41
S''
sg42
g521
sg43
S'3'
sg44
F0
ssS'2'
(dp2223
g40
I50
sg41
S''
sg42
g523
sg43
S'2'
sg44
F0
ssS'4'
(dp2224
g40
I50
sg41
S''
sg42
S'4'
sg43
S'4'
sg44
F0
sssg55
I0
sg56
F10
sg57
g88
sg19
F24
sg58
I0
sg59
I0
sg60
I0
sg61
I4
ssg105
(dp2225
g11
I0
sg26
I0
sg27
I0
sg28
I300
sg29
g507
sg30
I1
sg31
(dp2226
S'1'
(dp2227
g66
S''
sg67
I0
sg68
F0
sg69
F0
sg70
F0.29999999999999999
sg71
F0
sg72
I200
sg73
I1
sg42
S'4'
sg43
S'1'
sg40
I200
sssg18
I0
sg33
I100
sg34
F11000
sg35
I0
sg36
(dp2228
g557
(dp2229
g40
I50
sg41
S'1'
sg42
g79
sg43
g557
sg44
F0
ssg559
(dp2230
g40
I50
sg41
S'1'
sg42
g79
sg43
g559
sg44
F0
ssS'1'
(dp2231
g40
I50
sg41
S''
sg42
S'1'
sg43
S'1'
sg44
F0
ssS'3'
(dp2232
g40
I50
sg41
S''
sg42
g521
sg43
S'3'
sg44
F0
ssS'2'
(dp2233
g40
I50
sg41
S''
sg42
g523
sg43
S'2'
sg44
F0
ssS'5'
(dp2234
g40
I50
sg41
S''
sg42
S'7'
sg43
S'5'
sg44
F0
ssS'4'
(dp2235
g40
I50
sg41
S''
sg42
S'7'
sg43
S'4'
sg44
F0
ssS'7'
(dp2236
g40
I50
sg41
S''
sg42
S'7'
sg43
S'7'
sg44
F0
ssS'6'
(dp2237
g40
I50
sg41
S''
sg42
S'7'
sg43
S'6'
sg44
F0
ssS'9'
(dp2238
g40
I50
sg41
S'1'
sg42
g79
sg43
S'9'
sg44
F0
ssS'8'
(dp2239
g40
I50
sg41
S'1'
sg42
g79
sg43
S'8'
sg44
F0
sssg55
I0
sg56
F10
sg57
g105
sg19
F0
sg58
I0
sg59
I0
sg60
I200
sg61
I11
sssg1827
F182
sg1828
F0.5
sg1829
F9060
sg1830
F0
sg43
g588
sg1831
S'LAS----APG0'
p2240
sg1833
S''
sg59
I0
sg1834
S''
sg1835
F0
sg143
F1.1799999999999999
sg1836
S'16'
p2241
sg56
F40
sg19
F45.18
sg153
S'LAS12-Marine Transport'
p2242
sg27
F0
sg34
F34000
sg55
I0
ssg800
(dp2243
g494
I0
sg2132
F726
sg2133
F1408
sg2134
I0
sg497
I0
sg529
F700
sg2135
F300
sg22
(dp2244
g682
(dp2245
g494
I0
sg503
I0
sg504
I0
sg505
I0
sg506
S''
sg508
I0
sg31
(dp2246
S'1'
(dp2247
g548
S''
sg549
I0
sg550
F0
sg551
F0
sg552
F0.29999999999999999
sg553
F0
sg554
I400
sg555
I1
sg517
S'8'
sg518
S'1'
sg515
I400
sssg497
I0
sg510
I0
sg511
F13000
sg512
I0
sg36
(dp2248
g687
(dp2249
g515
I100
sg516
S'1'
sg517
g689
sg518
g687
sg519
F0
ssg690
(dp2250
g515
I100
sg516
S''
sg517
S'8'
sg518
g690
sg519
F0
ssg692
(dp2251
g515
I100
sg516
S'1'
sg517
g689
sg518
g692
sg519
F0
ssg694
(dp2252
g515
I100
sg516
S'1'
sg517
g689
sg518
g694
sg519
F0
ssg696
(dp2253
g515
I100
sg516
S'1'
sg517
g689
sg518
g696
sg519
F0
ssS'1'
(dp2254
g515
I100
sg516
S''
sg517
S'2'
sg518
S'1'
sg519
F0
ssS'3'
(dp2255
g515
I100
sg516
S''
sg517
S'2'
sg518
S'3'
sg519
F0
ssS'2'
(dp2256
g515
I100
sg516
S''
sg517
S'2'
sg518
S'2'
sg519
F0
ssS'5'
(dp2257
g515
I100
sg516
S''
sg517
S'5'
sg518
S'5'
sg519
F0
ssS'4'
(dp2258
g515
I100
sg516
S''
sg517
S'5'
sg518
S'4'
sg519
F0
ssS'7'
(dp2259
g515
I100
sg516
S''
sg517
S'8'
sg518
S'7'
sg519
F0
ssS'6'
(dp2260
g515
I100
sg516
S''
sg517
S'8'
sg518
S'6'
sg519
F0
ssS'9'
(dp2261
g515
I100
sg516
S''
sg517
S'8'
sg518
S'9'
sg519
F0
ssS'8'
(dp2262
g515
I100
sg516
S''
sg517
S'8'
sg518
S'8'
sg519
F0
sssg524
I0
sg525
F48
sg526
g682
sg498
F90
sg527
I0
sg528
I0
sg529
I500
sg530
I14
ssg707
(dp2263
g494
I0
sg503
I0
sg504
I0
sg505
I1800
sg506
g709
sg508
I2
sg31
(dp2264
S'1'
(dp2265
g548
S''
sg549
I0
sg550
F0
sg551
F90
sg552
F3
sg553
F0
sg554
I800
sg555
I1
sg517
g712
sg518
S'1'
sg515
I800
sssg497
I0
sg510
I200
sg511
F13400
sg512
I0
sg36
(dp2266
g714
(dp2267
g515
I100
sg516
S'1'
sg517
g689
sg518
g714
sg519
F0
ssg716
(dp2268
g515
I100
sg516
S'1'
sg517
g689
sg518
g716
sg519
F0
ssg718
(dp2269
g515
I100
sg516
S'1'
sg517
g689
sg518
g718
sg519
F0
ssg720
(dp2270
g515
I100
sg516
S'1'
sg517
g689
sg518
g720
sg519
F0
ssg722
(dp2271
g515
I100
sg516
S'1'
sg517
g689
sg518
g722
sg519
F0
ssS'1'
(dp2272
g515
I100
sg516
S''
sg517
g725
sg518
S'1'
sg519
F0
ssS'3'
(dp2273
g515
I100
sg516
S''
sg517
g727
sg518
S'3'
sg519
F0
ssS'2'
(dp2274
g515
I100
sg516
S''
sg517
g729
sg518
S'2'
sg519
F0
ssS'5'
(dp2275
g515
I100
sg516
S''
sg517
g731
sg518
S'5'
sg519
F0
ssS'4'
(dp2276
g515
I100
sg516
S''
sg517
g733
sg518
S'4'
sg519
F0
ssS'7'
(dp2277
g515
I100
sg516
S'1'
sg517
g689
sg518
S'7'
sg519
F0
ssS'6'
(dp2278
g515
I100
sg516
S''
sg517
g736
sg518
S'6'
sg519
F0
ssS'9'
(dp2279
g515
I100
sg516
S'1'
sg517
g689
sg518
S'9'
sg519
F0
ssS'8'
(dp2280
g515
I100
sg516
S'1'
sg517
g689
sg518
S'8'
sg519
F0
sssg524
I0
sg525
F0
sg526
g707
sg498
F0
sg527
I0
sg528
I0
sg529
I0
sg530
I14
ssg739
(dp2281
g494
I0
sg503
I0
sg504
I0
sg505
I1800
sg506
g709
sg508
I2
sg31
(dp2282
S'1'
(dp2283
g548
S''
sg549
I0
sg550
F0
sg551
F270
sg552
F3
sg553
F0
sg554
I800
sg555
I1
sg517
g743
sg518
S'1'
sg515
I800
sssg497
I0
sg510
I200
sg511
F13400
sg512
I0
sg36
(dp2284
g745
(dp2285
g515
I100
sg516
S'1'
sg517
g689
sg518
g745
sg519
F0
ssg747
(dp2286
g515
I100
sg516
S'1'
sg517
g689
sg518
g747
sg519
F0
ssg749
(dp2287
g515
I100
sg516
S'1'
sg517
g689
sg518
g749
sg519
F0
ssg751
(dp2288
g515
I100
sg516
S'1'
sg517
g689
sg518
g751
sg519
F0
ssg753
(dp2289
g515
I100
sg516
S'1'
sg517
g689
sg518
g753
sg519
F0
ssS'1'
(dp2290
g515
I100
sg516
S''
sg517
g756
sg518
S'1'
sg519
F0
ssS'3'
(dp2291
g515
I100
sg516
S''
sg517
g758
sg518
S'3'
sg519
F0
ssS'2'
(dp2292
g515
I100
sg516
S''
sg517
g760
sg518
S'2'
sg519
F0
ssS'5'
(dp2293
g515
I100
sg516
S''
sg517
g762
sg518
S'5'
sg519
F0
ssS'4'
(dp2294
g515
I100
sg516
S''
sg517
g764
sg518
S'4'
sg519
F0
ssS'7'
(dp2295
g515
I100
sg516
S'1'
sg517
g689
sg518
S'7'
sg519
F0
ssS'6'
(dp2296
g515
I100
sg516
S''
sg517
g767
sg518
S'6'
sg519
F0
ssS'9'
(dp2297
g515
I100
sg516
S'1'
sg517
g689
sg518
S'9'
sg519
F0
ssS'8'
(dp2298
g515
I100
sg516
S'1'
sg517
g689
sg518
S'8'
sg519
F0
sssg524
I0
sg525
F0
sg526
g739
sg498
F0
sg527
I0
sg528
I0
sg529
I0
sg530
I14
ssg770
(dp2299
g494
I0
sg503
I0
sg504
I0
sg505
I600
sg506
g709
sg508
I0
sg31
(dp2300
S'1'
(dp2301
g548
S''
sg549
I0
sg550
F0
sg551
F180
sg552
F0.29999999999999999
sg553
F0
sg554
I400
sg555
I1
sg517
S'8'
sg518
S'1'
sg515
I400
sssg497
I0
sg510
I0
sg511
F13000
sg512
I0
sg36
(dp2302
g775
(dp2303
g515
I100
sg516
S'1'
sg517
g689
sg518
g775
sg519
F0
ssg777
(dp2304
g515
I100
sg516
S''
sg517
S'8'
sg518
g777
sg519
F0
ssg779
(dp2305
g515
I100
sg516
S'1'
sg517
g689
sg518
g779
sg519
F0
ssg781
(dp2306
g515
I100
sg516
S'1'
sg517
g689
sg518
g781
sg519
F0
ssg783
(dp2307
g515
I100
sg516
S'1'
sg517
g689
sg518
g783
sg519
F0
ssS'1'
(dp2308
g515
I100
sg516
S''
sg517
S'2'
sg518
S'1'
sg519
F0
ssS'3'
(dp2309
g515
I100
sg516
S''
sg517
S'2'
sg518
S'3'
sg519
F0
ssS'2'
(dp2310
g515
I100
sg516
S''
sg517
S'2'
sg518
S'2'
sg519
F0
ssS'5'
(dp2311
g515
I100
sg516
S''
sg517
S'2'
sg518
S'5'
sg519
F0
ssS'4'
(dp2312
g515
I100
sg516
S''
sg517
S'2'
sg518
S'4'
sg519
F0
ssS'7'
(dp2313
g515
I100
sg516
S''
sg517
g791
sg518
S'7'
sg519
F0
ssS'6'
(dp2314
g515
I100
sg516
S''
sg517
S'2'
sg518
S'6'
sg519
F0
ssS'9'
(dp2315
g515
I100
sg516
S''
sg517
S'8'
sg518
S'9'
sg519
F0
ssS'8'
(dp2316
g515
I100
sg516
S''
sg517
S'5'
sg518
S'8'
sg519
F0
sssg524
I0
sg525
F96
sg526
g770
sg498
F45
sg527
I0
sg528
I0
sg529
I200
sg530
I14
sssg2192
F242
sg2193
F0.42857142857142855
sg2194
F15200
sg2195
F1200
sg518
g800
sg2196
S'BFR-AFC0-HAC90-HAC270-AFC180'
p2317
sg2198
S''
sg528
I0
sg2199
S''
sg2200
F1.7142857142857142
sg575
F2.1600000000000001
sg2201
S'6'
sg525
F144
sg498
F60
sg585
S'BFR17-BONES'
p2318
sg504
F0
sg511
F66800
sg524
I0
ssg1098
(dp2319
g494
I0
sg2132
F808
sg2133
F1604
sg2134
I0
sg497
I0
sg529
F1200
sg2135
F150
sg22
(dp2320
g962
(dp2321
g494
I0
sg503
I0
sg504
I0
sg505
I600
sg506
g709
sg508
I0
sg31
(dp2322
S'1'
(dp2323
g548
S''
sg549
I0
sg550
F0
sg551
F270
sg552
F3
sg553
F0
sg554
I800
sg555
I1
sg517
g966
sg518
S'1'
sg515
I800
sssg497
I0
sg510
I0
sg511
F15200
sg512
I0
sg36
(dp2324
g968
(dp2325
g515
I100
sg516
S'1'
sg517
g689
sg518
g968
sg519
F0
ssg970
(dp2326
g515
I100
sg516
S'1'
sg517
g689
sg518
g970
sg519
F0
ssg972
(dp2327
g515
I100
sg516
S'1'
sg517
g689
sg518
g972
sg519
F0
ssg974
(dp2328
g515
I100
sg516
S'1'
sg517
g689
sg518
g974
sg519
F0
ssg976
(dp2329
g515
I100
sg516
S'1'
sg517
g689
sg518
g976
sg519
F0
ssg978
(dp2330
g515
I100
sg516
S'1'
sg517
g689
sg518
g978
sg519
F0
ssg980
(dp2331
g515
I100
sg516
S'1'
sg517
g689
sg518
g980
sg519
F0
ssS'1'
(dp2332
g515
I100
sg516
S''
sg517
S'2'
sg518
S'1'
sg519
F0
ssS'3'
(dp2333
g515
I100
sg516
S''
sg517
g984
sg518
S'3'
sg519
F0
ssS'2'
(dp2334
g515
I100
sg516
S''
sg517
g986
sg518
S'2'
sg519
F0
ssS'5'
(dp2335
g515
I100
sg516
S''
sg517
S'8'
sg518
S'5'
sg519
F0
ssS'4'
(dp2336
g515
I100
sg516
S''
sg517
g989
sg518
S'4'
sg519
F0
ssS'7'
(dp2337
g515
I100
sg516
S''
sg517
S'8'
sg518
S'7'
sg519
F0
ssS'6'
(dp2338
g515
I100
sg516
S''
sg517
S'8'
sg518
S'6'
sg519
F0
ssS'9'
(dp2339
g515
I100
sg516
S'1'
sg517
g689
sg518
S'9'
sg519
F0
ssS'8'
(dp2340
g515
I100
sg516
S''
sg517
S'8'
sg518
S'8'
sg519
F0
sssg524
I0
sg525
F16
sg526
g962
sg498
F0
sg527
I0
sg528
I0
sg529
I400
sg530
I16
ssg994
(dp2341
g494
I0
sg503
I0
sg504
I0
sg505
I600
sg506
g709
sg508
I0
sg31
(dp2342
S'1'
(dp2343
g548
S''
sg549
I0
sg550
F0
sg551
F270
sg552
F3
sg553
F0
sg554
I800
sg555
I1
sg517
g998
sg518
S'1'
sg515
I800
sssg497
I0
sg510
I0
sg511
F15200
sg512
I0
sg36
(dp2344
g1000
(dp2345
g515
I100
sg516
S'1'
sg517
g689
sg518
g1000
sg519
F0
ssg1002
(dp2346
g515
I100
sg516
S'1'
sg517
g689
sg518
g1002
sg519
F0
ssg1004
(dp2347
g515
I100
sg516
S'1'
sg517
g689
sg518
g1004
sg519
F0
ssg1006
(dp2348
g515
I100
sg516
S'1'
sg517
g689
sg518
g1006
sg519
F0
ssg1008
(dp2349
g515
I100
sg516
S'1'
sg517
g689
sg518
g1008
sg519
F0
ssg1010
(dp2350
g515
I100
sg516
S'1'
sg517
g689
sg518
g1010
sg519
F0
ssg1012
(dp2351
g515
I100
sg516
S'1'
sg517
g689
sg518
g1012
sg519
F0
ssS'1'
(dp2352
g515
I100
sg516
S''
sg517
S'2'
sg518
S'1'
sg519
F0
ssS'3'
(dp2353
g515
I100
sg516
S''
sg517
g1016
sg518
S'3'
sg519
F0
ssS'2'
(dp2354
g515
I100
sg516
S''
sg517
S'2'
sg518
S'2'
sg519
F0
ssS'5'
(dp2355
g515
I100
sg516
S''
sg517
S'8'
sg518
S'5'
sg519
F0
ssS'4'
(dp2356
g515
I100
sg516
S''
sg517
S'5'
sg518
S'4'
sg519
F0
ssS'7'
(dp2357
g515
I100
sg516
S''
sg517
S'8'
sg518
S'7'
sg519
F0
ssS'6'
(dp2358
g515
I100
sg516
S''
sg517
S'8'
sg518
S'6'
sg519
F0
ssS'9'
(dp2359
g515
I100
sg516
S'1'
sg517
g689
sg518
S'9'
sg519
F0
ssS'8'
(dp2360
g515
I100
sg516
S''
sg517
S'8'
sg518
S'8'
sg519
F0
sssg524
I0
sg525
F32
sg526
g994
sg498
F45
sg527
I0
sg528
I0
sg529
I400
sg530
I16
ssg1024
(dp2361
g494
I0
sg503
I0
sg504
I0
sg505
I2400
sg506
g709
sg508
I0
sg31
(dp2362
S'1'
(dp2363
g548
S''
sg549
I0
sg550
F0
sg551
F270
sg552
F3
sg553
F0
sg554
I800
sg555
I1
sg517
g1028
sg518
S'1'
sg515
I800
sssg497
I0
sg510
I0
sg511
F15200
sg512
I0
sg36
(dp2364
g1030
(dp2365
g515
I100
sg516
S'1'
sg517
g689
sg518
g1030
sg519
F0
ssg1032
(dp2366
g515
I100
sg516
S'1'
sg517
g689
sg518
g1032
sg519
F0
ssg1034
(dp2367
g515
I100
sg516
S'1'
sg517
g689
sg518
g1034
sg519
F0
ssg1036
(dp2368
g515
I100
sg516
S'1'
sg517
g689
sg518
g1036
sg519
F0
ssg1038
(dp2369
g515
I100
sg516
S'1'
sg517
g689
sg518
g1038
sg519
F0
ssg1040
(dp2370
g515
I100
sg516
S'1'
sg517
g689
sg518
g1040
sg519
F0
ssg1042
(dp2371
g515
I100
sg516
S'1'
sg517
g689
sg518
g1042
sg519
F0
ssS'1'
(dp2372
g515
I100
sg516
S''
sg517
S'2'
sg518
S'1'
sg519
F0
ssS'3'
(dp2373
g515
I100
sg516
S''
sg517
g1046
sg518
S'3'
sg519
F0
ssS'2'
(dp2374
g515
I100
sg516
S''
sg517
S'2'
sg518
S'2'
sg519
F0
ssS'5'
(dp2375
g515
I100
sg516
S''
sg517
g1049
sg518
S'5'
sg519
F0
ssS'4'
(dp2376
g515
I100
sg516
S''
sg517
g1051
sg518
S'4'
sg519
F0
ssS'7'
(dp2377
g515
I100
sg516
S''
sg517
S'5'
sg518
S'7'
sg519
F0
ssS'6'
(dp2378
g515
I100
sg516
S''
sg517
g1054
sg518
S'6'
sg519
F0
ssS'9'
(dp2379
g515
I100
sg516
S'1'
sg517
g689
sg518
S'9'
sg519
F0
ssS'8'
(dp2380
g515
I100
sg516
S''
sg517
S'8'
sg518
S'8'
sg519
F0
sssg524
I0
sg525
F32
sg526
g1024
sg498
F45
sg527
I0
sg528
I0
sg529
I100
sg530
I16
ssg1057
(dp2381
g494
I0
sg503
I0
sg504
I0
sg505
I1800
sg506
g709
sg508
I0
sg31
(dp2382
S'1'
(dp2383
g548
S''
sg549
I0
sg550
F0
sg551
F0
sg552
F0.29999999999999999
sg553
F0
sg554
I400
sg555
I1
sg517
g1061
sg518
S'1'
sg515
I400
sssg497
I0
sg510
I0
sg511
F14800
sg512
I0
sg36
(dp2384
g1063
(dp2385
g515
I100
sg516
S''
sg517
S'8'
sg518
g1063
sg519
F0
ssg1065
(dp2386
g515
I100
sg516
S''
sg517
S'8'
sg518
g1065
sg519
F0
ssg1067
(dp2387
g515
I100
sg516
S'1'
sg517
g689
sg518
g1067
sg519
F0
ssg1069
(dp2388
g515
I100
sg516
S''
sg517
S'8'
sg518
g1069
sg519
F0
ssg1071
(dp2389
g515
I100
sg516
S'1'
sg517
g689
sg518
g1071
sg519
F0
ssg1073
(dp2390
g515
I100
sg516
S'1'
sg517
g689
sg518
g1073
sg519
F0
ssg1075
(dp2391
g515
I100
sg516
S'1'
sg517
g689
sg518
g1075
sg519
F0
ssS'1'
(dp2392
g515
I100
sg516
S''
sg517
S'2'
sg518
S'1'
sg519
F0
ssS'3'
(dp2393
g515
I100
sg516
S''
sg517
g1079
sg518
S'3'
sg519
F0
ssS'2'
(dp2394
g515
I100
sg516
S''
sg517
S'2'
sg518
S'2'
sg519
F0
ssS'5'
(dp2395
g515
I100
sg516
S''
sg517
g1082
sg518
S'5'
sg519
F0
ssS'4'
(dp2396
g515
I100
sg516
S''
sg517
g1084
sg518
S'4'
sg519
F0
ssS'7'
(dp2397
g515
I100
sg516
S''
sg517
g1086
sg518
S'7'
sg519
F0
ssS'6'
(dp2398
g515
I100
sg516
S''
sg517
g1088
sg518
S'6'
sg519
F0
ssS'9'
(dp2399
g515
I100
sg516
S''
sg517
g1090
sg518
S'9'
sg519
F0
ssS'8'
(dp2400
g515
I100
sg516
S''
sg517
g1092
sg518
S'8'
sg519
F0
sssg524
I0
sg525
F32
sg526
g1057
sg498
F0
sg527
I0
sg528
I0
sg529
I300
sg530
I16
sssg2192
F278
sg2193
F0.125
sg2194
F17130
sg2195
F2100
sg518
g1098
sg2196
S'DST-HFM270-HFM270-HFM270-AAC0'
p2401
sg2198
S''
sg528
I0
sg2199
S''
sg2200
F1.75
sg575
F1.47
sg2201
S'7'
sg525
F112
sg498
F37.700000000000003
sg585
S'DST16-COSMIC'
p2402
sg504
F0
sg511
F76400
sg524
I0
sssg518
S'2'
sssg1793
F0.84894862970879192
sg1791
S'Ulup'
p2403
sS'dronehulldata'
p2404
(dp2405
sS'x'
F36
sS'y'
F18
sg1790
S'8'
sg578
S'0'
sg518
S'8'
sS'shiphulldata'
p2406
(dp2407
sb.